(dp1
S'output'
p2
S"<type 'exceptions.TypeError'> unsupported operand type(s) for &: 'long' and 'Field'"
p3
sS'layer'
p4
S'C:\\Users\\Hiroshi\\Desktop\\web2py_src\\web2py\\applications\\scaffolding\\controllers/default.py'
p5
sS'code'
p6
S'# -*- coding: utf-8 -*-\n# this file is released under public domain and you can use without limitations\n\n#########################################################################\n## This is a sample controller\n## - index is the default action of any application\n## - user is required for authentication and authorization\n## - download is for downloading files uploaded in the db (does streaming)\n#########################################################################\n\n\ndef index():\n\treturn locals()\n\n\t\n@auth.requires_membership(\'admin\')\ndef admin():\n\tcompanies = db(db.company).select(orderby=db.company.name)\n\treturn locals()\n\t\n\n\t\n@auth.requires_login()\ndef products():\n\tif auth.user is None: redirect(URL(\'index\'))\n\tproducts = db(db.product).select(orderby=db.product.name)\n\treturn locals()\n\n@auth.requires_membership(\'admin\')\ndef product_create():\n\tif auth.user is None: redirect(URL(\'index\'))\n\tform = crud.create(db.product, next=\'products\')\n\treturn locals()\n\n@auth.requires_membership(\'admin\')\ndef product_edit():\n\tproduct = db.product(request.args(0)) or redirect(URL(\'products\'))\n\tform = crud.update(db.product, product, next=\'products\')\n\treturn locals()\n\ndef product_detail():\n\tproduct = db.product(request.args(0)) or redirect(URL(\'products\'))\n\treturn locals()\n\t\n@auth.requires_login()\ndef products_():\n\treturn locals()\n\n\n@auth.requires_membership(\'admin\')\t\ndef customers():\n\tif auth.user is None: redirect(URL(\'index\'))\n\tcustomers = db(db.auth_user).select(orderby=db.auth_user.first_name)\n\treturn locals()\n\t\n@auth.requires_membership(\'admin\')\ndef customer_edit():\n\tcustomer = db.auth_user(request.args(0)) or redirect(URL(\'customers\'))\n\tform = SQLFORM(db.auth_user, customer, showid=False, next=\'products\', ignore_rw=True,\n\tfields=[\'first_name\', \'last_name\', \'email\', \'company_name\', \'company_category\', \'company_homepage\', \'office_address\', \'postcode\', \'phone_number\', \'title\'])\n\t#form = SQLFORM(db.auth_user, customer, deletable=True)\n\tif form.process().accepted:\n\t\tsession.flash = \'form accepted\'\n\t\tredirect(URL(\'customers\'))\n\telif form.errors:\n\t\tresponse.flash = \'form has errors\'\n\treturn dict(form=form)\n\n@auth.requires_membership(\'admin\')\t\ndef customer_detail():\n\tcustomer = db.auth_user(request.args(0)) or redirect(URL(\'customers\'))\n\tform = SQLFORM(db.auth_user, customer, showid=False, next=\'products\', readonly=True,\n\tfields=[\'first_name\', \'last_name\', \'email\', \'company_name\', \'company_homepage\', \'office_address\', \'postcode\', \'phone_number\', \'title\'])\n\t#form = SQLFORM(db.auth_user, customer, deletable=True)\n\tif form.process().accepted:\n\t\tsession.flash = \'form accepted\'\n\t\tredirect(URL(\'customers\'))\n\telif form.errors:\n\t\tresponse.flash = \'form has errors\'\n\treturn locals()\n\n\t\n@auth.requires_membership(\'admin\')\ndef categories():\n\tif auth.user is None: redirect(URL(\'index\'))\n\tcategories = db(db.company_category).select(orderby=db.company_category.name)\n\treturn locals()\n\n@auth.requires_membership(\'admin\')\ndef category_create():\n\tif auth.user is None: redirect(URL(\'index\'))\n\tform = crud.create(db.company_category, next=\'categories\')\n\treturn locals()\n\n@auth.requires_membership(\'admin\')\ndef category_edit():\n\tcategory = db.company_category(request.args(0)) or redirect(URL(\'categories\'))\n\tform = crud.update(db.company_category, category, next=\'categories\')\n\treturn locals()\n\t\n\n@auth.requires_membership(\'admin\')\ndef orders():\n\tif auth.user is None: redirect(URL(\'index\'))\n\torders = db(db.sales_order).select(orderby=db.sales_order.order_time)\n\treturn locals()\n\ndef history():\n\tif auth.user is None: redirect(URL(\'index\'))\n\torders = db(db.sales_order.ordered_by == me & db.sales_order.order_status != \'in cart\').select(orderby=db.sales_order.order_time)\n\treturn locals()\n\n@auth.requires_membership(\'admin\')\ndef order_create():\n\tif auth.user is None: redirect(URL(\'index\'))\n\t#form = crud.create(db.sales_order, next=\'orders\')\n\t\n\tform = SQLFORM(db.sales_order)\n\tif form.validate():\n\t\t### deal with uploads explicitly\n\t\tform.vars.order_number = 11112222333344\n\t\tform.vars.id = db.sales_order.insert(**dict(form.vars))\n\t\tresponse.flash = \'record inserted\'\n\t\tredirect(URL(\'orders\'))\n\n\treturn locals()\n\n@auth.requires_membership(\'admin\')\ndef order_edit():\n\torder = db.sales_order(request.args(0)) or redirect(URL(\'orders\'))\n\tform = crud.update(db.sales_order, order, next=\'orders\')\n\treturn locals()\n\n@auth.requires_membership(\'admin\')\ndef order_detail():\n\torder = db.sales_order(request.args(0)) or redirect(URL(\'orders\'))\n\titems = db(db.sales_item.sales_order == order).select()\n\treturn locals()\n\n\t\n@auth.requires_membership(\'admin\')\ndef sales_item_create():\n\torder = db.sales_order(request.args(0)) or redirect(URL(\'orders\'))\n\tproducts = db(db.product).select(orderby=db.product.name)\n\titems = db(db.sales_item.sales_order == order).select()\n\treturn locals()\t\n\ndef add_item():\n\torder_id = int(request.vars.order_id)\n\tselect_item = int(request.vars.select_item)\n\t\n\titem = db((db.sales_item.sales_order == order_id) & (db.sales_item.product == select_item)).select().first()\n\n\tif item is None:\n\t\tdb.sales_item.validate_and_insert(\n\t\t\tsales_order=order_id,\n\t\t\tproduct=select_item,\n\t\t\tcase_quantity=1\n\t\t)\t\n\t\tsession.flash = \'An item has been added\'\n\t\treturn\n\telse:\n\t\tdb((db.sales_item.sales_order == order_id) & (db.sales_item.product == select_item)).update(\n\t\t\tcase_quantity=db.sales_item.case_quantity + 1\n\t\t)\t\n\t\tsession.flash = \'An item has been added\'\n\t\treturn\n\ndef drop_item():\n\torder_id = int(request.vars.order_id)\n\tselect_item = int(request.vars.select_item)\n\t\n\titem = db((db.sales_item.sales_order == order_id) & (db.sales_item.product == select_item)).select().first()\n\n\tif item.case_quantity == 1:\n\t\tdb((db.sales_item.sales_order == order_id) & (db.sales_item.product == select_item)).delete()\t\n\t\tsession.flash = \'An item has been droped\'\n\t\treturn\n\telse:\n\t\tdb((db.sales_item.sales_order == order_id) & (db.sales_item.product == select_item)).update(\n\t\t\tcase_quantity=db.sales_item.case_quantity - 1\n\t\t)\t\n\t\tsession.flash = \'An item has been droped\'\n\t\treturn\n\t\n\'\'\'\n@auth.requires_membership(\'admin\')\ndef customer_logs():\n\tcontact = db.contact(request.args(0)) or redirect(URL(\'companies\'))\n\tdb.log.contact.default = contact.id\n\tdb.log.contact.readable = False\n\tdb.log.contact.writable = False\n\tdb.log.posted_on.default = request.now\n\tdb.log.posted_on.readable = False\n\tdb.log.posted_on.writable = False\n\tform = crud.create(db.log)\n\tlogs = db(db.log.contact==contact.id).select(orderby=db.log.posted_on)\n\treturn locals()\n\'\'\'\n\t\n\t\n@auth.requires_membership(\'admin\')\t\ndef premises():\n\tif auth.user is None: redirect(URL(\'index\'))\n\tpremises = db(db.premise).select(orderby=db.premise.premise_name)\n\treturn locals()\n\t\n@auth.requires_membership(\'admin\')\ndef premise_create():\n\tif auth.user is None: redirect(URL(\'index\'))\n\tform = crud.create(db.premise, next=\'premises\')\n\treturn locals()\n\n@auth.requires_membership(\'admin\')\ndef premise_edit():\n\tpremise = db.premise(request.args(0)) or redirect(URL(\'index\'))\n\tform = crud.update(db.premise, premise, next=\'premises\')\n\treturn locals()\n\n\t\n\ndef user():\n    """\n    exposes:\n    http://..../[app]/default/user/login\n    http://..../[app]/default/user/logout\n    http://..../[app]/default/user/register\n    http://..../[app]/default/user/profile\n    http://..../[app]/default/user/retrieve_password\n    http://..../[app]/default/user/change_password\n    http://..../[app]/default/user/bulk_register\n    use @auth.requires_login()\n        @auth.requires_membership(\'group name\')\n        @auth.requires_permission(\'read\',\'table name\',record_id)\n    to decorate functions that need access control\n    also notice there is http://..../[app]/appadmin/manage/auth to allow administrator to manage users\n    """\n    return dict(form=auth())\n\n\n@cache.action()\ndef download():\n    """\n    allows downloading of uploaded files\n    http://..../[app]/default/download/[filename]\n    """\n    return response.download(request, db)\n\n\ndef call():\n    """\n    exposes services. for example:\n    http://..../[app]/default/call/jsonrpc\n    decorate with @services.jsonrpc the functions to expose\n    supports xml, json, xmlrpc, jsonrpc, amfrpc, rss, csv\n    """\n    return service()\n\ndef index(): \n     return dict(form=auth.login())\n\t \n\t \n\t \nresponse._vars=response._caller(history)\n'
p7
sS'snapshot'
p8
(dp9
S'exception'
p10
(dp11
S'__hash__'
p12
S"<method-wrapper '__hash__' of exceptions.TypeError object>"
p13
sS'__setattr__'
p14
S"<method-wrapper '__setattr__' of exceptions.TypeError object>"
p15
sS'__reduce_ex__'
p16
S'<built-in method __reduce_ex__ of exceptions.TypeError object>'
p17
sS'__getslice__'
p18
S"<method-wrapper '__getslice__' of exceptions.TypeError object>"
p19
sS'__getitem__'
p20
S"<method-wrapper '__getitem__' of exceptions.TypeError object>"
p21
sS'__setstate__'
p22
S'<built-in method __setstate__ of exceptions.TypeError object>'
p23
sS'__reduce__'
p24
S'<built-in method __reduce__ of exceptions.TypeError object>'
p25
sS'__str__'
p26
S"<method-wrapper '__str__' of exceptions.TypeError object>"
p27
sS'__format__'
p28
S'<built-in method __format__ of exceptions.TypeError object>'
p29
sS'__getattribute__'
p30
S"<method-wrapper '__getattribute__' of exceptions.TypeError object>"
p31
sS'__class__'
p32
S"<type 'exceptions.TypeError'>"
p33
sS'__unicode__'
p34
S'<built-in method __unicode__ of exceptions.TypeError object>'
p35
sS'__delattr__'
p36
S"<method-wrapper '__delattr__' of exceptions.TypeError object>"
p37
sS'__subclasshook__'
p38
S'<built-in method __subclasshook__ of type object>'
p39
sS'__repr__'
p40
S"<method-wrapper '__repr__' of exceptions.TypeError object>"
p41
sS'args'
p42
S'("unsupported operand type(s) for &: \'long\' and \'Field\'",)'
p43
sS'__dict__'
p44
S'{}'
p45
sS'__sizeof__'
p46
S'<built-in method __sizeof__ of exceptions.TypeError object>'
p47
sS'__doc__'
p48
S"'Inappropriate argument type.'"
p49
sS'__init__'
p50
S"<method-wrapper '__init__' of exceptions.TypeError object>"
p51
sS'__new__'
p52
S'<built-in method __new__ of type object>'
p53
ssS'evalue'
p54
S"unsupported operand type(s) for &: 'long' and 'Field'"
p55
sS'request'
p56
cgluon.html
XML_unpickle
p57
(S's\x85d\x00\x00<div><table><tr><td style="font-weight:bold;vertical-align:top;">ajax</td><td style="vertical-align:top;">:</td><td><div>False</div></td></tr><tr><td style="font-weight:bold;vertical-align:top;">application</td><td style="vertical-align:top;">:</td><td><div>scaffolding</div></td></tr><tr><td style="font-weight:bold;vertical-align:top;">args</td><td style="vertical-align:top;">:</td><td><div><table></table></div></td></tr><tr><td style="font-weight:bold;vertical-align:top;">cid</td><td style="vertical-align:top;">:</td><td><div>None</div></td></tr><tr><td style="font-weight:bold;vertical-align:top;">client</td><td style="vertical-align:top;">:</td><td><div>127.0.0.1</div></td></tr><tr><td style="font-weight:bold;vertical-align:top;">controller</td><td style="vertical-align:top;">:</td><td><div>default</div></td></tr><tr><td style="font-weight:bold;vertical-align:top;">cookies</td><td style="vertical-align:top;">:</td><td><div><table><tr><td style="font-weight:bold;vertical-align:top;">session_id_admin</td><td style="vertical-align:top;">:</td><td><div>127.0.0.1-674ca438-dbb9-4c22-846c-0e8ff40855b7<table><tr><td style="font-weight:bold;vertical-align:top;">comment</td><td style="vertical-align:top;">:</td><td><div></div></td></tr><tr><td style="font-weight:bold;vertical-align:top;">domain</td><td style="vertical-align:top;">:</td><td><div></div></td></tr><tr><td style="font-weight:bold;vertical-align:top;">expires</td><td style="vertical-align:top;">:</td><td><div></div></td></tr><tr><td style="font-weight:bold;vertical-align:top;">httponly</td><td style="vertical-align:top;">:</td><td><div></div></td></tr><tr><td style="font-weight:bold;vertical-align:top;">max-age</td><td style="vertical-align:top;">:</td><td><div></div></td></tr><tr><td style="font-weight:bold;vertical-align:top;">path</td><td style="vertical-align:top;">:</td><td><div></div></td></tr><tr><td style="font-weight:bold;vertical-align:top;">secure</td><td style="vertical-align:top;">:</td><td><div></div></td></tr><tr><td style="font-weight:bold;vertical-align:top;">version</td><td style="vertical-align:top;">:</td><td><div></div></td></tr></table></div></td></tr><tr><td style="font-weight:bold;vertical-align:top;">session_id_scaffolding</td><td style="vertical-align:top;">:</td><td><div>127.0.0.1-ee540377-976c-45d9-b615-b1bbd9823daa<table><tr><td style="font-weight:bold;vertical-align:top;">comment</td><td style="vertical-align:top;">:</td><td><div></div></td></tr><tr><td style="font-weight:bold;vertical-align:top;">domain</td><td style="vertical-align:top;">:</td><td><div></div></td></tr><tr><td style="font-weight:bold;vertical-align:top;">expires</td><td style="vertical-align:top;">:</td><td><div></div></td></tr><tr><td style="font-weight:bold;vertical-align:top;">httponly</td><td style="vertical-align:top;">:</td><td><div></div></td></tr><tr><td style="font-weight:bold;vertical-align:top;">max-age</td><td style="vertical-align:top;">:</td><td><div></div></td></tr><tr><td style="font-weight:bold;vertical-align:top;">path</td><td style="vertical-align:top;">:</td><td><div></div></td></tr><tr><td style="font-weight:bold;vertical-align:top;">secure</td><td style="vertical-align:top;">:</td><td><div></div></td></tr><tr><td style="font-weight:bold;vertical-align:top;">version</td><td style="vertical-align:top;">:</td><td><div></div></td></tr></table></div></td></tr><tr><td style="font-weight:bold;vertical-align:top;">session_id_welcome</td><td style="vertical-align:top;">:</td><td><div>127.0.0.1-70dce721-4b9e-4a6e-8059-1cd01d61e37c<table><tr><td style="font-weight:bold;vertical-align:top;">comment</td><td style="vertical-align:top;">:</td><td><div></div></td></tr><tr><td style="font-weight:bold;vertical-align:top;">domain</td><td style="vertical-align:top;">:</td><td><div></div></td></tr><tr><td style="font-weight:bold;vertical-align:top;">expires</td><td style="vertical-align:top;">:</td><td><div></div></td></tr><tr><td style="font-weight:bold;vertical-align:top;">httponly</td><td style="vertical-align:top;">:</td><td><div></div></td></tr><tr><td style="font-weight:bold;vertical-align:top;">max-age</td><td style="vertical-align:top;">:</td><td><div></div></td></tr><tr><td style="font-weight:bold;vertical-align:top;">path</td><td style="vertical-align:top;">:</td><td><div></div></td></tr><tr><td style="font-weight:bold;vertical-align:top;">secure</td><td style="vertical-align:top;">:</td><td><div></div></td></tr><tr><td style="font-weight:bold;vertical-align:top;">version</td><td style="vertical-align:top;">:</td><td><div></div></td></tr></table></div></td></tr></table></div></td></tr><tr><td style="font-weight:bold;vertical-align:top;">env</td><td style="vertical-align:top;">:</td><td><div><table><tr><td style="font-weight:bold;vertical-align:top;">HTTP_ACCEPT</td><td style="vertical-align:top;">:</td><td><div>text/html,application/xhtml+xml,application/xml;q=0.9,image/webp,*/*;q=0.8</div></td></tr><tr><td style="font-weight:bold;vertical-align:top;">HTTP_ACCEPT_ENCODING</td><td style="vertical-align:top;">:</td><td><div>gzip, deflate, sdch</div></td></tr><tr><td style="font-weight:bold;vertical-align:top;">HTTP_ACCEPT_LANGUAGE</td><td style="vertical-align:top;">:</td><td><div>ja,en-US;q=0.8,en;q=0.6</div></td></tr><tr><td style="font-weight:bold;vertical-align:top;">HTTP_CACHE_CONTROL</td><td style="vertical-align:top;">:</td><td><div>no-cache</div></td></tr><tr><td style="font-weight:bold;vertical-align:top;">HTTP_CONNECTION</td><td style="vertical-align:top;">:</td><td><div>keep-alive</div></td></tr><tr><td style="font-weight:bold;vertical-align:top;">HTTP_COOKIE</td><td style="vertical-align:top;">:</td><td><div>session_id_welcome=127.0.0.1-70dce721-4b9e-4a6e-8059-1cd01d61e37c; session_id_scaffolding=127.0.0.1-ee540377-976c-45d9-b615-b1bbd9823daa; session_id_admin=127.0.0.1-674ca438-dbb9-4c22-846c-0e8ff40855b7</div></td></tr><tr><td style="font-weight:bold;vertical-align:top;">HTTP_HOST</td><td style="vertical-align:top;">:</td><td><div>127.0.0.1:8000</div></td></tr><tr><td style="font-weight:bold;vertical-align:top;">HTTP_PRAGMA</td><td style="vertical-align:top;">:</td><td><div>no-cache</div></td></tr><tr><td style="font-weight:bold;vertical-align:top;">HTTP_REFERER</td><td style="vertical-align:top;">:</td><td><div>http://127.0.0.1:8000/scaffolding/default/orders</div></td></tr><tr><td style="font-weight:bold;vertical-align:top;">HTTP_UPGRADE_INSECURE_REQUESTS</td><td style="vertical-align:top;">:</td><td><div>1</div></td></tr><tr><td style="font-weight:bold;vertical-align:top;">HTTP_USER_AGENT</td><td style="vertical-align:top;">:</td><td><div>Mozilla/5.0 (Windows NT 10.0; WOW64) AppleWebKit/537.36 (KHTML, like Gecko) Chrome/49.0.2623.112 Safari/537.36</div></td></tr><tr><td style="font-weight:bold;vertical-align:top;">PATH_INFO</td><td style="vertical-align:top;">:</td><td><div>/scaffolding/default/history</div></td></tr><tr><td style="font-weight:bold;vertical-align:top;">QUERY_STRING</td><td style="vertical-align:top;">:</td><td><div></div></td></tr><tr><td style="font-weight:bold;vertical-align:top;">REMOTE_ADDR</td><td style="vertical-align:top;">:</td><td><div>127.0.0.1</div></td></tr><tr><td style="font-weight:bold;vertical-align:top;">REMOTE_PORT</td><td style="vertical-align:top;">:</td><td><div>50361</div></td></tr><tr><td style="font-weight:bold;vertical-align:top;">REQUEST_METHOD</td><td style="vertical-align:top;">:</td><td><div>GET</div></td></tr><tr><td style="font-weight:bold;vertical-align:top;">SCRIPT_NAME</td><td style="vertical-align:top;">:</td><td><div></div></td></tr><tr><td style="font-weight:bold;vertical-align:top;">SERVER_NAME</td><td style="vertical-align:top;">:</td><td><div>Grace</div></td></tr><tr><td style="font-weight:bold;vertical-align:top;">SERVER_PORT</td><td style="vertical-align:top;">:</td><td><div>8000</div></td></tr><tr><td style="font-weight:bold;vertical-align:top;">SERVER_PROTOCOL</td><td style="vertical-align:top;">:</td><td><div>HTTP/1.1</div></td></tr><tr><td style="font-weight:bold;vertical-align:top;">SERVER_SOFTWARE</td><td style="vertical-align:top;">:</td><td><div>Rocket 1.2.6</div></td></tr><tr><td style="font-weight:bold;vertical-align:top;">app_folders</td><td style="vertical-align:top;">:</td><td><div>set([&#x27;C:\\\\Users\\\\Hiroshi\\\\Desktop\\\\web2py_src\\\\web2py\\\\applications\\\\welcome\\\\&#x27;, &#x27;C:\\\\Users\\\\Hiroshi\\\\Desktop\\\\web2py_src\\\\web2py\\\\applications\\\\scaffolding\\\\&#x27;, &#x27;C:\\\\Users\\\\Hiroshi\\\\Desktop\\\\web2py_src\\\\web2py\\\\applications\\\\admin\\\\&#x27;])</div></td></tr><tr><td style="font-weight:bold;vertical-align:top;">applications_parent</td><td style="vertical-align:top;">:</td><td><div>C:\\Users\\Hiroshi\\Desktop\\web2py_src\\web2py</div></td></tr><tr><td style="font-weight:bold;vertical-align:top;">cmd_args</td><td style="vertical-align:top;">:</td><td><div><table></table></div></td></tr><tr><td style="font-weight:bold;vertical-align:top;">cmd_options</td><td style="vertical-align:top;">:</td><td><div>&lt;Values at 0x3411dc8: {&#x27;verbose&#x27;: False, &#x27;ip&#x27;: &#x27;127.0.0.1&#x27;, &#x27;debuglevel&#x27;: 30, &#x27;with_scheduler&#x27;: False, &#x27;ips&#x27;: [&#x27;fe80::5c04:b79d:529c:b311%4&#x27;, &#x27;192.168.2.1&#x27;, &#x27;192.168.229.1&#x27;, &#x27;fe80::2c3b:313d:a96b:21bb%13&#x27;, &#x27;192.168.1.72&#x27;, &#x27;fe80::28d2:dcdc:45a1:1f9c%2&#x27;, &#x27;2001:0:5ef5:79fb:2c3b:313d:a96b:21bb&#x27;, &#x27;fe80::2093:bc47:9545:e11c%5&#x27;], &#x27;shutdown_timeout&#x27;: 5, &#x27;taskbar&#x27;: False, &#x27;with_coverage&#x27;: False, &#x27;scheduler_groups&#x27;: None, &#x27;port&#x27;: 8000, &#x27;maxthreads&#x27;: None, &#x27;softcron&#x27;: False, &#x27;server_name&#x27;: &#x27;Grace&#x27;, &#x27;bpython&#x27;: False, &#x27;nogui&#x27;: False, &#x27;pid_filename&#x27;: &#x27;httpserver.pid&#x27;, &#x27;print_errors&#x27;: False, &#x27;extcron&#x27;: False, &#x27;runcron&#x27;: False, &#x27;run_system_tests&#x27;: False, &#x27;test&#x27;: None, &#x27;folder&#x27;: &#x27;C:\\\\Users\\\\Hiroshi\\\\Desktop\\\\web2py_src\\\\web2py&#x27;, &#x27;config&#x27;: &#x27;&#x27;, &#x27;minthreads&#x27;: None, &#x27;shell&#x27;: None, &#x27;run&#x27;: &#x27;&#x27;, &#x27;log_filename&#x27;: &#x27;httpserver.log&#x27;, &#x27;profiler_dir&#x27;: None, &#x27;args&#x27;: [&#x27;&#x27;], &#x27;socket_timeout&#x27;: 5, &#x27;ssl_ca_certificate&#x27;: None, &#x27;scheduler&#x27;: None, &#x27;interfaces&#x27;: None, &#x27;ssl_private_key&#x27;: &#x27;&#x27;, &#x27;gae&#x27;: None, &#x27;password&#x27;: &#x27;&lt;ask&gt;&#x27;, &#x27;request_queue_size&#x27;: 5, &#x27;ssl_certificate&#x27;: &#x27;&#x27;, &#x27;cronjob&#x27;: False, &#x27;numthreads&#x27;: None, &#x27;quiet&#x27;: False, &#x27;import_models&#x27;: False, &#x27;timeout&#x27;: 10, &#x27;plain&#x27;: False, &#x27;nobanner&#x27;: False}&gt;</div></td></tr><tr><td style="font-weight:bold;vertical-align:top;">db_sessions</td><td style="vertical-align:top;">:</td><td><div>set([])</div></td></tr><tr><td style="font-weight:bold;vertical-align:top;">debugging</td><td style="vertical-align:top;">:</td><td><div>False</div></td></tr><tr><td style="font-weight:bold;vertical-align:top;">gluon_parent</td><td style="vertical-align:top;">:</td><td><div>C:\\Users\\Hiroshi\\Desktop\\web2py_src\\web2py</div></td></tr><tr><td style="font-weight:bold;vertical-align:top;">http_accept</td><td style="vertical-align:top;">:</td><td><div>text/html,application/xhtml+xml,application/xml;q=0.9,image/webp,*/*;q=0.8</div></td></tr><tr><td style="font-weight:bold;vertical-align:top;">http_accept_encoding</td><td style="vertical-align:top;">:</td><td><div>gzip, deflate, sdch</div></td></tr><tr><td style="font-weight:bold;vertical-align:top;">http_accept_language</td><td style="vertical-align:top;">:</td><td><div>ja,en-US;q=0.8,en;q=0.6</div></td></tr><tr><td style="font-weight:bold;vertical-align:top;">http_cache_control</td><td style="vertical-align:top;">:</td><td><div>no-cache</div></td></tr><tr><td style="font-weight:bold;vertical-align:top;">http_connection</td><td style="vertical-align:top;">:</td><td><div>keep-alive</div></td></tr><tr><td style="font-weight:bold;vertical-align:top;">http_cookie</td><td style="vertical-align:top;">:</td><td><div>session_id_welcome=127.0.0.1-70dce721-4b9e-4a6e-8059-1cd01d61e37c; session_id_scaffolding=127.0.0.1-ee540377-976c-45d9-b615-b1bbd9823daa; session_id_admin=127.0.0.1-674ca438-dbb9-4c22-846c-0e8ff40855b7</div></td></tr><tr><td style="font-weight:bold;vertical-align:top;">http_host</td><td style="vertical-align:top;">:</td><td><div>127.0.0.1:8000</div></td></tr><tr><td style="font-weight:bold;vertical-align:top;">http_pragma</td><td style="vertical-align:top;">:</td><td><div>no-cache</div></td></tr><tr><td style="font-weight:bold;vertical-align:top;">http_referer</td><td style="vertical-align:top;">:</td><td><div>http://127.0.0.1:8000/scaffolding/default/orders</div></td></tr><tr><td style="font-weight:bold;vertical-align:top;">http_upgrade_insecure_requests</td><td style="vertical-align:top;">:</td><td><div>1</div></td></tr><tr><td style="font-weight:bold;vertical-align:top;">http_user_agent</td><td style="vertical-align:top;">:</td><td><div>Mozilla/5.0 (Windows NT 10.0; WOW64) AppleWebKit/537.36 (KHTML, like Gecko) Chrome/49.0.2623.112 Safari/537.36</div></td></tr><tr><td style="font-weight:bold;vertical-align:top;">is_jython</td><td style="vertical-align:top;">:</td><td><div>False</div></td></tr><tr><td style="font-weight:bold;vertical-align:top;">is_pypy</td><td style="vertical-align:top;">:</td><td><div>False</div></td></tr><tr><td style="font-weight:bold;vertical-align:top;">is_source</td><td style="vertical-align:top;">:</td><td><div>True</div></td></tr><tr><td style="font-weight:bold;vertical-align:top;">local_hosts</td><td style="vertical-align:top;">:</td><td><div><table><tr><td><div>fe80::5c04:b79d:529c:b311%4</div></td></tr><tr><td><div>192.168.2.1</div></td></tr><tr><td><div>192.168.229.1</div></td></tr><tr><td><div>fe80::2c3b:313d:a96b:21bb%13</div></td></tr><tr><td><div>::ffff:127.0.0.1</div></td></tr><tr><td><div>::1</div></td></tr><tr><td><div>192.168.1.72</div></td></tr><tr><td><div>fe80::28d2:dcdc:45a1:1f9c%2</div></td></tr><tr><td><div>2001:0:5ef5:79fb:2c3b:313d:a96b:21bb</div></td></tr><tr><td><div>fe80::2093:bc47:9545:e11c%5</div></td></tr><tr><td><div>Grace</div></td></tr><tr><td><div>127.0.0.1</div></td></tr></table></div></td></tr><tr><td style="font-weight:bold;vertical-align:top;">path_info</td><td style="vertical-align:top;">:</td><td><div>/scaffolding/default/history</div></td></tr><tr><td style="font-weight:bold;vertical-align:top;">query_string</td><td style="vertical-align:top;">:</td><td><div></div></td></tr><tr><td style="font-weight:bold;vertical-align:top;">remote_addr</td><td style="vertical-align:top;">:</td><td><div>127.0.0.1</div></td></tr><tr><td style="font-weight:bold;vertical-align:top;">remote_port</td><td style="vertical-align:top;">:</td><td><div>50361</div></td></tr><tr><td style="font-weight:bold;vertical-align:top;">request_method</td><td style="vertical-align:top;">:</td><td><div>GET</div></td></tr><tr><td style="font-weight:bold;vertical-align:top;">request_uri</td><td style="vertical-align:top;">:</td><td><div>/scaffolding/default/history</div></td></tr><tr><td style="font-weight:bold;vertical-align:top;">script_name</td><td style="vertical-align:top;">:</td><td><div></div></td></tr><tr><td style="font-weight:bold;vertical-align:top;">server_name</td><td style="vertical-align:top;">:</td><td><div>Grace</div></td></tr><tr><td style="font-weight:bold;vertical-align:top;">server_port</td><td style="vertical-align:top;">:</td><td><div>8000</div></td></tr><tr><td style="font-weight:bold;vertical-align:top;">server_protocol</td><td style="vertical-align:top;">:</td><td><div>HTTP/1.1</div></td></tr><tr><td style="font-weight:bold;vertical-align:top;">server_software</td><td style="vertical-align:top;">:</td><td><div>Rocket 1.2.6</div></td></tr><tr><td style="font-weight:bold;vertical-align:top;">web2py_path</td><td style="vertical-align:top;">:</td><td><div>C:\\Users\\Hiroshi\\Desktop\\web2py_src\\web2py</div></td></tr><tr><td style="font-weight:bold;vertical-align:top;">web2py_version</td><td style="vertical-align:top;">:</td><td><div>2.13.4-stable+timestamp.2015.12.26.04.59.39</div></td></tr><tr><td style="font-weight:bold;vertical-align:top;">wsgi.errors</td><td style="vertical-align:top;">:</td><td><div>&lt;open file &#x27;&lt;stderr&gt;&#x27;, mode &#x27;w&#x27; at 0x0252D0D0&gt;</div></td></tr><tr><td style="font-weight:bold;vertical-align:top;">wsgi.file_wrapper</td><td style="vertical-align:top;">:</td><td><div>&lt;class wsgiref.util.FileWrapper at 0x03384068&gt;</div></td></tr><tr><td style="font-weight:bold;vertical-align:top;">wsgi.input</td><td style="vertical-align:top;">:</td><td><div>&lt;socket._fileobject object at 0x0991C030&gt;</div></td></tr><tr><td style="font-weight:bold;vertical-align:top;">wsgi.multiprocess</td><td style="vertical-align:top;">:</td><td><div>False</div></td></tr><tr><td style="font-weight:bold;vertical-align:top;">wsgi.multithread</td><td style="vertical-align:top;">:</td><td><div>True</div></td></tr><tr><td style="font-weight:bold;vertical-align:top;">wsgi.run_once</td><td style="vertical-align:top;">:</td><td><div>False</div></td></tr><tr><td style="font-weight:bold;vertical-align:top;">wsgi.url_scheme</td><td style="vertical-align:top;">:</td><td><div>http</div></td></tr><tr><td style="font-weight:bold;vertical-align:top;">wsgi.version</td><td style="vertical-align:top;">:</td><td><div><table><tr><td><div>1</div></td></tr><tr><td><div>0</div></td></tr></table></div></td></tr><tr><td style="font-weight:bold;vertical-align:top;">wsgi_errors</td><td style="vertical-align:top;">:</td><td><div>&lt;open file &#x27;&lt;stderr&gt;&#x27;, mode &#x27;w&#x27; at 0x0252D0D0&gt;</div></td></tr><tr><td style="font-weight:bold;vertical-align:top;">wsgi_file_wrapper</td><td style="vertical-align:top;">:</td><td><div>&lt;class wsgiref.util.FileWrapper at 0x03384068&gt;</div></td></tr><tr><td style="font-weight:bold;vertical-align:top;">wsgi_input</td><td style="vertical-align:top;">:</td><td><div>&lt;socket._fileobject object at 0x0991C030&gt;</div></td></tr><tr><td style="font-weight:bold;vertical-align:top;">wsgi_multiprocess</td><td style="vertical-align:top;">:</td><td><div>False</div></td></tr><tr><td style="font-weight:bold;vertical-align:top;">wsgi_multithread</td><td style="vertical-align:top;">:</td><td><div>True</div></td></tr><tr><td style="font-weight:bold;vertical-align:top;">wsgi_run_once</td><td style="vertical-align:top;">:</td><td><div>False</div></td></tr><tr><td style="font-weight:bold;vertical-align:top;">wsgi_url_scheme</td><td style="vertical-align:top;">:</td><td><div>http</div></td></tr><tr><td style="font-weight:bold;vertical-align:top;">wsgi_version</td><td style="vertical-align:top;">:</td><td><div><table><tr><td><div>1</div></td></tr><tr><td><div>0</div></td></tr></table></div></td></tr></table></div></td></tr><tr><td style="font-weight:bold;vertical-align:top;">extension</td><td style="vertical-align:top;">:</td><td><div>html</div></td></tr><tr><td style="font-weight:bold;vertical-align:top;">folder</td><td style="vertical-align:top;">:</td><td><div>C:\\Users\\Hiroshi\\Desktop\\web2py_src\\web2py\\applications\\scaffolding\\</div></td></tr><tr><td style="font-weight:bold;vertical-align:top;">function</td><td style="vertical-align:top;">:</td><td><div>history</div></td></tr><tr><td style="font-weight:bold;vertical-align:top;">global_settings</td><td style="vertical-align:top;">:</td><td><div><table><tr><td style="font-weight:bold;vertical-align:top;">app_folders</td><td style="vertical-align:top;">:</td><td><div>set([&#x27;C:\\\\Users\\\\Hiroshi\\\\Desktop\\\\web2py_src\\\\web2py\\\\applications\\\\welcome\\\\&#x27;, &#x27;C:\\\\Users\\\\Hiroshi\\\\Desktop\\\\web2py_src\\\\web2py\\\\applications\\\\scaffolding\\\\&#x27;, &#x27;C:\\\\Users\\\\Hiroshi\\\\Desktop\\\\web2py_src\\\\web2py\\\\applications\\\\admin\\\\&#x27;])</div></td></tr><tr><td style="font-weight:bold;vertical-align:top;">applications_parent</td><td style="vertical-align:top;">:</td><td><div>C:\\Users\\Hiroshi\\Desktop\\web2py_src\\web2py</div></td></tr><tr><td style="font-weight:bold;vertical-align:top;">cmd_args</td><td style="vertical-align:top;">:</td><td><div><table></table></div></td></tr><tr><td style="font-weight:bold;vertical-align:top;">cmd_options</td><td style="vertical-align:top;">:</td><td><div>&lt;Values at 0x3411dc8: {&#x27;verbose&#x27;: False, &#x27;ip&#x27;: &#x27;127.0.0.1&#x27;, &#x27;debuglevel&#x27;: 30, &#x27;with_scheduler&#x27;: False, &#x27;ips&#x27;: [&#x27;fe80::5c04:b79d:529c:b311%4&#x27;, &#x27;192.168.2.1&#x27;, &#x27;192.168.229.1&#x27;, &#x27;fe80::2c3b:313d:a96b:21bb%13&#x27;, &#x27;192.168.1.72&#x27;, &#x27;fe80::28d2:dcdc:45a1:1f9c%2&#x27;, &#x27;2001:0:5ef5:79fb:2c3b:313d:a96b:21bb&#x27;, &#x27;fe80::2093:bc47:9545:e11c%5&#x27;], &#x27;shutdown_timeout&#x27;: 5, &#x27;taskbar&#x27;: False, &#x27;with_coverage&#x27;: False, &#x27;scheduler_groups&#x27;: None, &#x27;port&#x27;: 8000, &#x27;maxthreads&#x27;: None, &#x27;softcron&#x27;: False, &#x27;server_name&#x27;: &#x27;Grace&#x27;, &#x27;bpython&#x27;: False, &#x27;nogui&#x27;: False, &#x27;pid_filename&#x27;: &#x27;httpserver.pid&#x27;, &#x27;print_errors&#x27;: False, &#x27;extcron&#x27;: False, &#x27;runcron&#x27;: False, &#x27;run_system_tests&#x27;: False, &#x27;test&#x27;: None, &#x27;folder&#x27;: &#x27;C:\\\\Users\\\\Hiroshi\\\\Desktop\\\\web2py_src\\\\web2py&#x27;, &#x27;config&#x27;: &#x27;&#x27;, &#x27;minthreads&#x27;: None, &#x27;shell&#x27;: None, &#x27;run&#x27;: &#x27;&#x27;, &#x27;log_filename&#x27;: &#x27;httpserver.log&#x27;, &#x27;profiler_dir&#x27;: None, &#x27;args&#x27;: [&#x27;&#x27;], &#x27;socket_timeout&#x27;: 5, &#x27;ssl_ca_certificate&#x27;: None, &#x27;scheduler&#x27;: None, &#x27;interfaces&#x27;: None, &#x27;ssl_private_key&#x27;: &#x27;&#x27;, &#x27;gae&#x27;: None, &#x27;password&#x27;: &#x27;&lt;ask&gt;&#x27;, &#x27;request_queue_size&#x27;: 5, &#x27;ssl_certificate&#x27;: &#x27;&#x27;, &#x27;cronjob&#x27;: False, &#x27;numthreads&#x27;: None, &#x27;quiet&#x27;: False, &#x27;import_models&#x27;: False, &#x27;timeout&#x27;: 10, &#x27;plain&#x27;: False, &#x27;nobanner&#x27;: False}&gt;</div></td></tr><tr><td style="font-weight:bold;vertical-align:top;">db_sessions</td><td style="vertical-align:top;">:</td><td><div>set([])</div></td></tr><tr><td style="font-weight:bold;vertical-align:top;">debugging</td><td style="vertical-align:top;">:</td><td><div>False</div></td></tr><tr><td style="font-weight:bold;vertical-align:top;">gluon_parent</td><td style="vertical-align:top;">:</td><td><div>C:\\Users\\Hiroshi\\Desktop\\web2py_src\\web2py</div></td></tr><tr><td style="font-weight:bold;vertical-align:top;">is_jython</td><td style="vertical-align:top;">:</td><td><div>False</div></td></tr><tr><td style="font-weight:bold;vertical-align:top;">is_pypy</td><td style="vertical-align:top;">:</td><td><div>False</div></td></tr><tr><td style="font-weight:bold;vertical-align:top;">is_source</td><td style="vertical-align:top;">:</td><td><div>True</div></td></tr><tr><td style="font-weight:bold;vertical-align:top;">local_hosts</td><td style="vertical-align:top;">:</td><td><div><table><tr><td><div>fe80::5c04:b79d:529c:b311%4</div></td></tr><tr><td><div>192.168.2.1</div></td></tr><tr><td><div>192.168.229.1</div></td></tr><tr><td><div>fe80::2c3b:313d:a96b:21bb%13</div></td></tr><tr><td><div>::ffff:127.0.0.1</div></td></tr><tr><td><div>::1</div></td></tr><tr><td><div>192.168.1.72</div></td></tr><tr><td><div>fe80::28d2:dcdc:45a1:1f9c%2</div></td></tr><tr><td><div>2001:0:5ef5:79fb:2c3b:313d:a96b:21bb</div></td></tr><tr><td><div>fe80::2093:bc47:9545:e11c%5</div></td></tr><tr><td><div>Grace</div></td></tr><tr><td><div>127.0.0.1</div></td></tr></table></div></td></tr><tr><td style="font-weight:bold;vertical-align:top;">web2py_version</td><td style="vertical-align:top;">:</td><td><div>2.13.4-stable+timestamp.2015.12.26.04.59.39</div></td></tr></table></div></td></tr><tr><td style="font-weight:bold;vertical-align:top;">is_https</td><td style="vertical-align:top;">:</td><td><div>False</div></td></tr><tr><td style="font-weight:bold;vertical-align:top;">is_local</td><td style="vertical-align:top;">:</td><td><div>True</div></td></tr><tr><td style="font-weight:bold;vertical-align:top;">is_restful</td><td style="vertical-align:top;">:</td><td><div>False</div></td></tr><tr><td style="font-weight:bold;vertical-align:top;">is_scheduler</td><td style="vertical-align:top;">:</td><td><div>False</div></td></tr><tr><td style="font-weight:bold;vertical-align:top;">is_shell</td><td style="vertical-align:top;">:</td><td><div>False</div></td></tr><tr><td style="font-weight:bold;vertical-align:top;">now</td><td style="vertical-align:top;">:</td><td><div>datetime.datetime(2016, 4, 27, 13, 21, 10, 671000)</div></td></tr><tr><td style="font-weight:bold;vertical-align:top;">raw_args</td><td style="vertical-align:top;">:</td><td><div></div></td></tr><tr><td style="font-weight:bold;vertical-align:top;">raw_extension</td><td style="vertical-align:top;">:</td><td><div>None</div></td></tr><tr><td style="font-weight:bold;vertical-align:top;">url</td><td style="vertical-align:top;">:</td><td><div>/scaffolding/default/history</div></td></tr><tr><td style="font-weight:bold;vertical-align:top;">utcnow</td><td style="vertical-align:top;">:</td><td><div>datetime.datetime(2016, 4, 27, 12, 21, 10, 671000)</div></td></tr><tr><td style="font-weight:bold;vertical-align:top;">wsgi</td><td style="vertical-align:top;">:</td><td><div>&lt;gluon.main.LazyWSGI object at 0x0A2FE8D0&gt;</div></td></tr></table></div>'
tRp58
sS'frames'
p59
(lp60
(dp61
S'file'
p62
S'C:\\Users\\Hiroshi\\Desktop\\web2py_src\\web2py\\gluon\\restricted.py'
p63
sS'dump'
p64
(dp65
S'environment'
p66
S"{'A': <class 'gluon.html.A'>, 'ANY_OF': <class 'gluon.validators.ANY_OF'>, 'ASSIGNJS': <function ASSIGNJS>, 'Auth': <class 'gluon.tools.Auth'>, 'B': <class 'gluon.html.B'>, 'BEAUTIFY': <class 'gluon.html.BEAUTIFY'>, 'BODY': <class 'gluon.html.BODY'>, 'BR': <class 'gluon.html.BR'>, 'BUTTON': <class 'gluon.html.BUTTON'>, 'CAT': <class 'gluon.html.CAT'>, ...}"
p67
sS'ccode'
p68
S'<code object <module> at 0A242458, file "C:\\User...ons\\scaffolding\\controllers/default.py", line 12>'
p69
ssS'lnum'
p70
I227
sS'lines'
p71
(dp72
I224
S'            ccode = code'
p73
sI225
S'        else:'
p74
sI226
S'            ccode = compile2(code, layer)'
p75
sI227
S'        exec ccode in environment'
p76
sI228
S'    except HTTP:'
p77
sI229
S'        raise'
p78
sI230
S'    except RestrictedError:'
p79
sI231
S'        # do not encapsulate (obfuscate) the original RestrictedError'
p80
sI222
S'    try:'
p81
sI223
S'        if isinstance(code, types.CodeType):'
p82
ssS'call'
p83
S"(code='# -*- coding: utf-8 -*-\\n# this file is released ... \\n\\t \\n\\t \\nresponse._vars=response._caller(history)\\n', environment={'A': <class 'gluon.html.A'>, 'ANY_OF': <class 'gluon.validators.ANY_OF'>, 'ASSIGNJS': <function ASSIGNJS>, 'Auth': <class 'gluon.tools.Auth'>, 'B': <class 'gluon.html.B'>, 'BEAUTIFY': <class 'gluon.html.BEAUTIFY'>, 'BODY': <class 'gluon.html.BODY'>, 'BR': <class 'gluon.html.BR'>, 'BUTTON': <class 'gluon.html.BUTTON'>, 'CAT': <class 'gluon.html.CAT'>, ...}, layer=r'C:\\Users\\Hiroshi\\Desktop\\web2py_src\\web2py\\applications\\scaffolding\\controllers/default.py')"
p84
sS'func'
p85
S'restricted'
p86
sa(dp87
g62
S'C:\\Users\\Hiroshi\\Desktop\\web2py_src\\web2py\\applications\\scaffolding\\controllers\\default.py'
p88
sg64
(dp89
sg70
I264
sg71
(dp90
I256
S'    """'
p91
sI257
S'    return service()'
p92
sI258
S''
sI259
S'def index():'
p93
sI260
S'     return dict(form=auth.login())'
p94
sI261
S''
sI262
S''
sI263
S''
sI254
S'    decorate with @services.jsonrpc the functions to expose'
p95
sI255
S'    supports xml, json, xmlrpc, jsonrpc, amfrpc, rss, csv'
p96
ssg83
S'()'
p97
sg85
S'<module>'
p98
sa(dp99
g62
S'C:\\Users\\Hiroshi\\Desktop\\web2py_src\\web2py\\gluon\\globals.py'
p100
sg64
(dp101
S'self'
p102
S'undefined'
p103
sS'f'
S'<function history>'
p104
ssg70
I412
sg71
(dp105
I416
S"        self.generic_patterns = ['*']"
p106
sI407
S"        self.flash = ''            # used by the default view layout"
p107
sI408
S'        self.meta = Storage()      # used by web2py_ajax.html'
p108
sI409
S'        self.menu = []             # used by the default view layout'
p109
sI410
S'        self.files = []            # used by web2py_ajax.html'
p110
sI411
S'        self._vars = None'
p111
sI412
S'        self._caller = lambda f: f()'
p112
sI413
S'        self._view_environment = None'
p113
sI414
S'        self._custom_commit = None'
p114
sI415
S'        self._custom_rollback = None'
p115
ssg83
S'(f=<function history>)'
p116
sg85
S'<lambda>'
p117
sa(dp118
g62
S'C:\\Users\\Hiroshi\\Desktop\\web2py_src\\web2py\\applications\\scaffolding\\controllers\\default.py'
p119
sg64
(dp120
S'orderby'
p121
g103
sS'db.sales_order.order_time'
p122
S'<pydal.objects.Field object>'
p123
sS'global me'
p124
S'1L'
p125
sS'db.sales_order'
p126
S'<Table sales_order (id,order_number,ordered_by,order_status,order_time,dispatch_time,total_amount)>'
p127
sS').select'
p128
g103
sS'db.sales_order.ordered_by'
p129
S'<pydal.objects.Field object>'
p130
sS'global db'
p131
S'<DAL uri="sqlite://storage.sqlite">'
p132
sS'global orders'
p133
S'<function orders>'
p134
ssg70
I110
sg71
(dp135
I105
S'\torders = db(db.sales_order).select(orderby=db.sales_order.order_time)'
p136
sI106
S'\treturn locals()'
p137
sI107
S''
sI108
S'def history():'
p138
sI109
S"\tif auth.user is None: redirect(URL('index'))"
p139
sI110
S"\torders = db(db.sales_order.ordered_by == me & db.sales_order.order_status != 'in cart').select(orderby=db.sales_order.order_time)"
p140
sI111
S'\treturn locals()'
p141
sI112
S''
sI113
S"@auth.requires_membership('admin')"
p142
sI114
S'def order_create():'
p143
ssg83
S'()'
p144
sg85
S'history'
p145
sasS'pyver'
p146
S'Python 2.7.11: C:\\Python27\\python.exe (prefix: C:\\Python27)'
p147
sS'session'
p148
g57
(S's\xb5\x0c\x00\x00<div><table><tr><td style="font-weight:bold;vertical-align:top;">auth</td><td style="vertical-align:top;">:</td><td><div><table><tr><td style="font-weight:bold;vertical-align:top;">expiration</td><td style="vertical-align:top;">:</td><td><div>3600</div></td></tr><tr><td style="font-weight:bold;vertical-align:top;">hmac_key</td><td style="vertical-align:top;">:</td><td><div>1598996e-d3e4-4d4d-8a17-2711c7f27891</div></td></tr><tr><td style="font-weight:bold;vertical-align:top;">last_visit</td><td style="vertical-align:top;">:</td><td><div>datetime.datetime(2016, 4, 27, 13, 16, 39, 182000)</div></td></tr><tr><td style="font-weight:bold;vertical-align:top;">remember_me</td><td style="vertical-align:top;">:</td><td><div>False</div></td></tr><tr><td style="font-weight:bold;vertical-align:top;">user</td><td style="vertical-align:top;">:</td><td><div><table><tr><td style="font-weight:bold;vertical-align:top;">company_homepage</td><td style="vertical-align:top;">:</td><td><div></div></td></tr><tr><td style="font-weight:bold;vertical-align:top;">company_name</td><td style="vertical-align:top;">:</td><td><div>2OR3 LTD</div></td></tr><tr><td style="font-weight:bold;vertical-align:top;">email</td><td style="vertical-align:top;">:</td><td><div>anachanpapa@gmail.com</div></td></tr><tr><td style="font-weight:bold;vertical-align:top;">first_name</td><td style="vertical-align:top;">:</td><td><div>Hiroshi</div></td></tr><tr><td style="font-weight:bold;vertical-align:top;">id</td><td style="vertical-align:top;">:</td><td><div>1L</div></td></tr><tr><td style="font-weight:bold;vertical-align:top;">last_name</td><td style="vertical-align:top;">:</td><td><div>Sasaki</div></td></tr><tr><td style="font-weight:bold;vertical-align:top;">office_address</td><td style="vertical-align:top;">:</td><td><div>2 Andover Close</div></td></tr><tr><td style="font-weight:bold;vertical-align:top;">phone_number</td><td style="vertical-align:top;">:</td><td><div>02085757185</div></td></tr><tr><td style="font-weight:bold;vertical-align:top;">postcode</td><td style="vertical-align:top;">:</td><td><div>UB6 9QW</div></td></tr><tr><td style="font-weight:bold;vertical-align:top;">registration_id</td><td style="vertical-align:top;">:</td><td><div></div></td></tr><tr><td style="font-weight:bold;vertical-align:top;">registration_key</td><td style="vertical-align:top;">:</td><td><div></div></td></tr><tr><td style="font-weight:bold;vertical-align:top;">reset_password_key</td><td style="vertical-align:top;">:</td><td><div></div></td></tr><tr><td style="font-weight:bold;vertical-align:top;">title</td><td style="vertical-align:top;">:</td><td><div>admin</div></td></tr></table></div></td></tr><tr><td style="font-weight:bold;vertical-align:top;">user_groups</td><td style="vertical-align:top;">:</td><td><div><table><tr><td style="font-weight:bold;vertical-align:top;">1</td><td style="vertical-align:top;">:</td><td><div>user_1</div></td></tr><tr><td style="font-weight:bold;vertical-align:top;">4</td><td style="vertical-align:top;">:</td><td><div>admin</div></td></tr></table></div></td></tr></table></div></td></tr><tr><td style="font-weight:bold;vertical-align:top;">flash</td><td style="vertical-align:top;">:</td><td><div>None</div></td></tr></table></div>'
tRp149
sS'etype'
p150
S"<type 'exceptions.TypeError'>"
p151
sS'date'
p152
S'Wed Apr 27 13:21:10 2016'
p153
sS'response'
p154
g57
(S'sH\x1a\x00\x00<div><table><tr><td style="font-weight:bold;vertical-align:top;">body</td><td style="vertical-align:top;">:</td><td><div>&lt;cStringIO.StringO object at 0x09ED3FC0&gt;</div></td></tr><tr><td style="font-weight:bold;vertical-align:top;">cookies</td><td style="vertical-align:top;">:</td><td><div><table><tr><td style="font-weight:bold;vertical-align:top;">session_id_scaffolding</td><td style="vertical-align:top;">:</td><td><div>127.0.0.1-ee540377-976c-45d9-b615-b1bbd9823daa<table><tr><td style="font-weight:bold;vertical-align:top;">comment</td><td style="vertical-align:top;">:</td><td><div></div></td></tr><tr><td style="font-weight:bold;vertical-align:top;">domain</td><td style="vertical-align:top;">:</td><td><div></div></td></tr><tr><td style="font-weight:bold;vertical-align:top;">expires</td><td style="vertical-align:top;">:</td><td><div></div></td></tr><tr><td style="font-weight:bold;vertical-align:top;">httponly</td><td style="vertical-align:top;">:</td><td><div></div></td></tr><tr><td style="font-weight:bold;vertical-align:top;">max-age</td><td style="vertical-align:top;">:</td><td><div></div></td></tr><tr><td style="font-weight:bold;vertical-align:top;">path</td><td style="vertical-align:top;">:</td><td><div>/</div></td></tr><tr><td style="font-weight:bold;vertical-align:top;">secure</td><td style="vertical-align:top;">:</td><td><div></div></td></tr><tr><td style="font-weight:bold;vertical-align:top;">version</td><td style="vertical-align:top;">:</td><td><div></div></td></tr></table></div></td></tr></table></div></td></tr><tr><td style="font-weight:bold;vertical-align:top;">delimiters</td><td style="vertical-align:top;">:</td><td><div><table><tr><td><div>{{</div></td></tr><tr><td><div>}}</div></td></tr></table></div></td></tr><tr><td style="font-weight:bold;vertical-align:top;">files</td><td style="vertical-align:top;">:</td><td><div><table></table></div></td></tr><tr><td style="font-weight:bold;vertical-align:top;">flash</td><td style="vertical-align:top;">:</td><td><div></div></td></tr><tr><td style="font-weight:bold;vertical-align:top;">form_label_separator</td><td style="vertical-align:top;">:</td><td><div>: </div></td></tr><tr><td style="font-weight:bold;vertical-align:top;">formstyle</td><td style="vertical-align:top;">:</td><td><div>table3cols</div></td></tr><tr><td style="font-weight:bold;vertical-align:top;">generic_patterns</td><td style="vertical-align:top;">:</td><td><div><table><tr><td><div>*</div></td></tr></table></div></td></tr><tr><td style="font-weight:bold;vertical-align:top;">headers</td><td style="vertical-align:top;">:</td><td><div><table><tr><td style="font-weight:bold;vertical-align:top;">X-Powered-By</td><td style="vertical-align:top;">:</td><td><div>web2py</div></td></tr></table></div></td></tr><tr><td style="font-weight:bold;vertical-align:top;">menu</td><td style="vertical-align:top;">:</td><td><div><table><tr><td><div><table><tr><td><div>Companies</div></td></tr><tr><td><div>False</div></td></tr><tr><td><div>/scaffolding/default/companies</div></td></tr></table></div></td></tr><tr><td><div><table><tr><td><div>Companies</div></td></tr><tr><td><div>False</div></td></tr><tr><td><div>/scaffolding/default/companies</div></td></tr></table></div></td></tr><tr><td><div><table><tr><td><div>Companies</div></td></tr><tr><td><div>False</div></td></tr><tr><td><div>/scaffolding/default/companies</div></td></tr></table></div></td></tr></table></div></td></tr><tr><td style="font-weight:bold;vertical-align:top;">meta</td><td style="vertical-align:top;">:</td><td><div><table></table></div></td></tr><tr><td style="font-weight:bold;vertical-align:top;">models_to_run</td><td style="vertical-align:top;">:</td><td><div><table><tr><td><div>^\\w+\\.py$</div></td></tr><tr><td><div>^default/\\w+\\.py$</div></td></tr><tr><td><div>^default/history/\\w+\\.py$</div></td></tr></table></div></td></tr><tr><td style="font-weight:bold;vertical-align:top;">postprocessing</td><td style="vertical-align:top;">:</td><td><div><table></table></div></td></tr><tr><td style="font-weight:bold;vertical-align:top;">session_client</td><td style="vertical-align:top;">:</td><td><div>127.0.0.1</div></td></tr><tr><td style="font-weight:bold;vertical-align:top;">session_cookie_compression_level</td><td style="vertical-align:top;">:</td><td><div>None</div></td></tr><tr><td style="font-weight:bold;vertical-align:top;">session_cookie_expires</td><td style="vertical-align:top;">:</td><td><div>None</div></td></tr><tr><td style="font-weight:bold;vertical-align:top;">session_cookie_key</td><td style="vertical-align:top;">:</td><td><div>None</div></td></tr><tr><td style="font-weight:bold;vertical-align:top;">session_data_name</td><td style="vertical-align:top;">:</td><td><div>session_data_scaffolding</div></td></tr><tr><td style="font-weight:bold;vertical-align:top;">session_file</td><td style="vertical-align:top;">:</td><td><div>&lt;open file &#x27;C:\\\\Users\\\\Hiroshi\\\\Desktop\\\\web2py_src\\\\web2py\\\\applications\\\\scaffolding\\\\sessions\\\\0f4\\\\1c6\\\\127.0.0.1-ee540377-976c-45d9-b615-b1bbd9823daa&#x27;, mode &#x27;rb+&#x27; at 0x09930910&gt;</div></td></tr><tr><td style="font-weight:bold;vertical-align:top;">session_filename</td><td style="vertical-align:top;">:</td><td><div>C:\\Users\\Hiroshi\\Desktop\\web2py_src\\web2py\\applications\\scaffolding\\sessions\\127.0.0.1-ee540377-976c-45d9-b615-b1bbd9823daa</div></td></tr><tr><td style="font-weight:bold;vertical-align:top;">session_hash</td><td style="vertical-align:top;">:</td><td><div>d573177d98a25b4bbfa7a58738604e7d</div></td></tr><tr><td style="font-weight:bold;vertical-align:top;">session_id</td><td style="vertical-align:top;">:</td><td><div>127.0.0.1-ee540377-976c-45d9-b615-b1bbd9823daa</div></td></tr><tr><td style="font-weight:bold;vertical-align:top;">session_id_name</td><td style="vertical-align:top;">:</td><td><div>session_id_scaffolding</div></td></tr><tr><td style="font-weight:bold;vertical-align:top;">session_locked</td><td style="vertical-align:top;">:</td><td><div>True</div></td></tr><tr><td style="font-weight:bold;vertical-align:top;">session_masterapp</td><td style="vertical-align:top;">:</td><td><div>scaffolding</div></td></tr><tr><td style="font-weight:bold;vertical-align:top;">session_new</td><td style="vertical-align:top;">:</td><td><div>False</div></td></tr><tr><td style="font-weight:bold;vertical-align:top;">session_storage_type</td><td style="vertical-align:top;">:</td><td><div>file</div></td></tr><tr><td style="font-weight:bold;vertical-align:top;">status</td><td style="vertical-align:top;">:</td><td><div>200</div></td></tr><tr><td style="font-weight:bold;vertical-align:top;">view</td><td style="vertical-align:top;">:</td><td><div>default/history.html</div></td></tr></table></div>'
tRp155
sS'locals'
p156
(dp157
ssS'traceback'
p158
S'Traceback (most recent call last):\n  File "C:\\Users\\Hiroshi\\Desktop\\web2py_src\\web2py\\gluon\\restricted.py", line 227, in restricted\n    exec ccode in environment\n  File "C:\\Users\\Hiroshi\\Desktop\\web2py_src\\web2py\\applications\\scaffolding\\controllers/default.py", line 264, in <module>\n  File "C:\\Users\\Hiroshi\\Desktop\\web2py_src\\web2py\\gluon\\globals.py", line 412, in <lambda>\n    self._caller = lambda f: f()\n  File "C:\\Users\\Hiroshi\\Desktop\\web2py_src\\web2py\\applications\\scaffolding\\controllers/default.py", line 110, in history\n    orders = db(db.sales_order.ordered_by == me & db.sales_order.order_status != \'in cart\').select(orderby=db.sales_order.order_time)\nTypeError: unsupported operand type(s) for &: \'long\' and \'Field\'\n'
p159
s.