(dp1
S'output'
p2
S"<type 'exceptions.UnboundLocalError'> local variable 'first_login' referenced before assignment"
p3
sS'layer'
p4
S'C:\\Users\\Hiroshi\\Desktop\\web2py_src\\web2py\\applications\\thesakecellar\\controllers/default.py'
p5
sS'code'
p6
S'# -*- coding: utf-8 -*-\n# this file is released under public domain and you can use without limitations\n\n#########################################################################\n## This is a sample controller\n## - index is the default action of any application\n## - user is required for authentication and authorization\n## - download is for downloading files uploaded in the db (does streaming)\n#########################################################################\n\n\n#@auth.requires_login()\n\ndef user():\n    """\n    exposes:\n    http://..../[app]/default/user/login\n    http://..../[app]/default/user/logout\n    http://..../[app]/default/user/register\n    http://..../[app]/default/user/profile\n    http://..../[app]/default/user/retrieve_password\n    http://..../[app]/default/user/change_password\n    http://..../[app]/default/user/bulk_register\n    use @auth.requires_login()\n        @auth.requires_membership(\'group name\')\n        @auth.requires_permission(\'read\',\'table name\',record_id)\n    to decorate functions that need access control\n    also notice there is http://..../[app]/appadmin/manage/auth to allow administrator to manage users\n    """\n    return dict(form=auth())\n\t\ndef index():\n\tproducts = db(db.product).select(orderby=db.product.name)\n\treturn locals()\t\n\t\ndef products():\n\timport datetime\n\tif auth.user is None: redirect(URL(\'login\'))\t\n\n\tif first_login == 0:\t\n\t\t#send notification email to service@thesakecellar.com\n\t\tname = auth.user.first_name + " " + auth.user.last_name\n\t\tcompany = auth.user.company_name\n\t\tnow = datetime.datetime.now()\n\t\tadmin_email = \'service@thesakecellar.com\'\n\t\tmail.send(to=[admin_email],\n\t\t\t  subject= "[info] " + name + " has logged in.",\n\t\t\t  # If reply_to is omitted, then mail.settings.sender is used\n\t\t\t  reply_to=\'service@thesakecellar.com\',\n\t\t\t  message= name + " @ " + company + " " + str(now))\n\t\tfirst_login = 1\t\n\t\n\tcart = db((db.sales_order.ordered_by == me) & (db.sales_order.order_status == \'in cart\')).select(orderby=db.sales_order.order_time).first()\n\tif cart is None:\n\t\tdb.sales_order.insert(order_number=11112222333345, ordered_by=auth.user, order_status=\'in cart\', payment_method="pay before delivery", postage=0, subtotal=0, total=0)\n\n\tproducts = db(db.product).select(orderby=db.product.name)\n\treturn locals()\n\t\ndef product_detail():\n\tcart = db((db.sales_order.ordered_by == me) & (db.sales_order.order_status == \'in cart\')).select(orderby=db.sales_order.order_time).first()\n\tproduct = db.product(request.args(0)) or redirect(URL(\'products\'))\n\treturn locals()\n\ndef add_item():\n\torder_id = int(request.vars.order_id)\n\tselect_id = int(request.vars.select_item)\n\tselect_item = db.product[select_id]\n\titem = db((db.sales_item.sales_order == order_id) & (db.sales_item.product == select_item)).select().first()\n\t\n\tif item is None:\n\t\tdb.sales_item.validate_and_insert(\n\t\t\tsales_order=order_id,\n\t\t\tproduct=select_item,\n\t\t\tsales_price= select_item.price,\n\t\t\tcase_quantity=1\n\t\t)\n\t\tdb.commit()\n\t\tsession.flash = \'An item has been added\'\n\t\tcart_compute()\n\t\treturn\n\telse:\n\t\tcurrent_quantity = item.case_quantity\n\t\tdb((db.sales_item.sales_order == order_id) & (db.sales_item.product == select_item)).update(\n\t\t\tcase_quantity=current_quantity + 1\n\t\t)\n\t\tdb.commit()\n\t\tsession.flash = \'An item has been added\'\n\t\tcart_compute()\t\t\n\t\treturn\n\ndef drop_item():\n\torder_id = int(request.vars.order_id)\n\tselect_item = int(request.vars.select_item)\n\t\n\titem = db((db.sales_item.sales_order == order_id) & (db.sales_item.product == select_item)).select().first()\n\n\tif item.case_quantity == 1:\n\t\tdb((db.sales_item.sales_order == order_id) & (db.sales_item.product == select_item)).delete()\n\t\tdb.commit()\n\t\tsession.flash = \'An item has been dropped\'\n\t\tcart_compute()\n\t\treturn\n\telse:\n\t\tdb((db.sales_item.sales_order == order_id) & (db.sales_item.product == select_item)).update(\n\t\t\tcase_quantity=db.sales_item.case_quantity - 1\n\t\t)\n\t\tdb.commit()\n\t\tsession.flash = \'An item has been dropped\'\n\t\tcart_compute()\n\t\treturn\n\t\t\ndef cart():\n\tif auth.user is None: redirect(URL(\'login\'))\n\n\tcart = db((db.sales_order.ordered_by == me) & (db.sales_order.order_status == \'in cart\')).select(orderby=db.sales_order.order_time).first()\n\tif cart is None:\n\t\t\t\tdb.sales_order.insert(order_number=11112222333345, ordered_by=auth.user, order_status=\'in cart\', payment_method="pay before delivery", postage=0, subtotal=0, total=0)\n\t\n\titems = db(db.sales_item.sales_order == cart).select()\n\t\n\treturn locals()\n\t\n\t\ndef cart_compute():\t\n\tif auth.user is None: redirect(URL(\'login\'))\n\n\tcart = db((db.sales_order.ordered_by == me) & (db.sales_order.order_status == \'in cart\')).select(orderby=db.sales_order.order_time).first()\n\titems = db(db.sales_item.sales_order == cart).select()\n\n\tsubtotal = 0;\n\tfor item in items:\n\t\tsubtotal += item.sales_price * item.case_quantity * 12\n\tcart.update_record(subtotal=subtotal)\n\t\n\treturn \n\ndef order_options():\n\tif auth.user is None: redirect(URL(\'login\'))\n\tcart = db((db.sales_order.ordered_by == me) & (db.sales_order.order_status == \'in cart\')).select(orderby=db.sales_order.order_time).first()\n\tpremises = db(db.premise.purchased_by == me).select(orderby=db.premise.premise_name)\n\tif cart.total == 0:\n\t\tsubtotal = cart.subtotal\n\t\tcart.update_record(total=subtotal)\n\treturn locals()\n\t\t\ndef checkout():\n\tif auth.user is None: redirect(URL(\'login\'))\n\tcart = db((db.sales_order.ordered_by == me) & (db.sales_order.order_status == \'in cart\')).select(orderby=db.sales_order.order_time).first()\t\n\titems = db(db.sales_item.sales_order == cart).select()\n\treturn locals()\n\t\ndef order_complete():\n\timport datetime\n\tif auth.user is None: redirect(URL(\'login\'))\n\tcart = db((db.sales_order.ordered_by == me) & (db.sales_order.order_status == \'in cart\')).select(orderby=db.sales_order.order_time).first()\t\n\t\n\tnow = datetime.datetime.now()\n\tif cart is not None:\n\t\tif cart.subtotal != 0:\n\t\t\tcart.update_record(order_status=\'order processing\', order_time=now)\n\t\t\tdb.commit()\n\t\t\n\tlatest_order = db(db.sales_order.ordered_by == me).select(orderby=~db.sales_order.order_time).first()\n\t\n\tpost_payment = 0\n\tif latest_order.payment_method == "pay after delivery":\n\t\tpost_payment = 1\n\treturn locals()\n\t\ndef history():\n\tif auth.user is None: redirect(URL(\'login\'))\n\torders = db((db.sales_order.ordered_by == me) & (db.sales_order.order_status != \'in cart\')).select(orderby=db.sales_order.order_status | ~db.sales_order.order_time)\n\treturn locals()\n\t\ndef login(): \n     return dict(form=auth.login())\n\t \n\t \ndef about():\n\treturn locals()\n\n\ndef pre_payment():\n\torder_id = int(request.vars.order_id)\n\tcart = db((db.sales_order.ordered_by == me) & (db.sales_order.id == order_id)).select().first()\n\tsubtotal = cart.subtotal\n\tpostage = 0.00\n\ttotal = subtotal\n\tcart.update_record(payment_method = "pay before delivery", postage = postage, total = total)\n\tdb.commit()\n\treturn\n\t\ndef post_payment():\n\torder_id = int(request.vars.order_id)\n\tcart = db((db.sales_order.ordered_by == me) & (db.sales_order.id == order_id)).select().first()\n\tsubtotal = cart.subtotal\n\tpostage = 7.95\n\ttotal = subtotal + postage\n\tcart.update_record(payment_method = "pay after delivery", postage = postage, total = total)\t\n\tdb.commit()\n\treturn\n\t\n\t\ndef update_premise():\n\tpremise_id = int(request.vars.premise_id)\n\tcart = db((db.sales_order.ordered_by == me) & (db.sales_order.order_status == \'in cart\')).select(orderby=db.sales_order.order_time).first()\n\tdelivery_premise = db(db.premise.id == premise_id).select().first()\n\tcart.update_record(delivery_premise = delivery_premise)\n\tdb.commit()\n\treturn\n\t\n\n@auth.requires_membership(\'admin\')\ndef admin_top():\n\treturn locals()\n\t\n\t\n@auth.requires_membership(\'admin\')\ndef product_create():\n\tif auth.user is None: redirect(URL(\'login\'))\n\tform = crud.create(db.product, next=\'products\')\n\treturn locals()\n\n@auth.requires_membership(\'admin\')\ndef product_edit():\n\tproduct = db.product(request.args(0)) or redirect(URL(\'products\'))\n\tform = crud.update(db.product, product, next=\'products\')\n\treturn locals()\n\n\n@auth.requires_membership(\'admin\')\t\ndef customers():\n\tif auth.user is None: redirect(URL(\'login\'))\n\tcustomers = db(db.auth_user).select(orderby=db.auth_user.first_name)\n\treturn locals()\n\n@auth.requires_membership(\'admin\')\ndef customer_create():\n\tif auth.user is None: redirect(URL(\'login\'))\n\tform = crud.create(db.auth_user, next=\'customers\')\n\treturn locals()\n\t\n@auth.requires_membership(\'admin\')\ndef customer_edit():\n\tcustomer = db.auth_user(request.args(0)) or redirect(URL(\'customers\'))\n\tform = SQLFORM(db.auth_user, customer, showid=False, next=\'products\', ignore_rw=True,\n\tfields=[\'first_name\', \'last_name\', \'email\', \'company_name\', \'company_homepage\', \'office_address\', \'postcode\', \'phone_number\', \'title\'])\n\t#form = SQLFORM(db.auth_user, customer, deletable=True)\n\tif form.process().accepted:\n\t\tsession.flash = \'form accepted\'\n\t\tredirect(URL(\'customers\'))\n\telif form.errors:\n\t\tresponse.flash = \'form has errors\'\n\treturn dict(form=form)\n\n@auth.requires_membership(\'admin\')\t\ndef customer_detail():\n\tcustomer = db.auth_user(request.args(0)) or redirect(URL(\'customers\'))\n\tform = SQLFORM(db.auth_user, customer, showid=False, next=\'products\', readonly=True,\n\tfields=[\'first_name\', \'last_name\', \'email\', \'company_name\', \'company_homepage\', \'office_address\', \'postcode\', \'phone_number\', \'title\'])\n\t#form = SQLFORM(db.auth_user, customer, deletable=True)\n\tif form.process().accepted:\n\t\tsession.flash = \'form accepted\'\n\t\tredirect(URL(\'customers\'))\n\telif form.errors:\n\t\tresponse.flash = \'form has errors\'\n\treturn locals()\n\n\t\n@auth.requires_membership(\'admin\')\ndef categories():\n\tif auth.user is None: redirect(URL(\'login\'))\n\tcategories = db(db.customer_category).select(orderby=db.customer_category.name)\n\treturn locals()\n\n@auth.requires_membership(\'admin\')\ndef category_create():\n\tif auth.user is None: redirect(URL(\'login\'))\n\tform = crud.create(db.customer_category, next=\'categories\')\n\treturn locals()\n\n@auth.requires_membership(\'admin\')\ndef category_edit():\n\tcategory = db.customer_category(request.args(0)) or redirect(URL(\'categories\'))\n\tform = crud.update(db.customer_category, category, next=\'categories\')\n\treturn locals()\n\t\n\n@auth.requires_membership(\'admin\')\ndef orders():\n\tif auth.user is None: redirect(URL(\'login\'))\n\torders = db(db.sales_order).select(orderby=~db.sales_order.order_time)\t\n\treturn locals()\n\n\t\n@auth.requires_membership(\'admin\')\ndef order_create():\n\tif auth.user is None: redirect(URL(\'login\'))\n\t#form = crud.create(db.sales_order, next=\'orders\')\n\t\n\tform = SQLFORM(db.sales_order)\n\tif form.validate():\n\t\t### deal with uploads explicitly\n\t\tform.vars.order_number = 11112222333344\n\t\tform.vars.id = db.sales_order.insert(**dict(form.vars))\n\t\tresponse.flash = \'record inserted\'\n\t\tredirect(URL(\'orders\'))\n\n\treturn locals()\n\n@auth.requires_membership(\'admin\')\ndef order_edit():\n\torder = db.sales_order(request.args(0)) or redirect(URL(\'orders\'))\n\tform = crud.update(db.sales_order, order, next=\'orders\')\n\treturn locals()\n\n@auth.requires_membership(\'admin\')\ndef order_detail():\n\torder = db.sales_order(request.args(0)) or redirect(URL(\'orders\'))\n\titems = db(db.sales_item.sales_order == order).select()\n\treturn locals()\n\n\t\n@auth.requires_membership(\'admin\')\ndef sales_item_create():\n\torder = db.sales_order(request.args(0)) or redirect(URL(\'orders\'))\n\tproducts = db(db.product).select(orderby=db.product.name)\n\titems = db(db.sales_item.sales_order == order).select()\n\treturn locals()\t\n\n\t\n@auth.requires_membership(\'admin\')\t\ndef premises():\n\tif auth.user is None: redirect(URL(\'login\'))\n\tpremises = db(db.premise).select(orderby=db.premise.premise_name)\n\treturn locals()\n\t\n@auth.requires_membership(\'admin\')\ndef premise_create():\n\tif auth.user is None: redirect(URL(\'login\'))\n\tform = crud.create(db.premise, next=\'premises\')\n\treturn locals()\n\n@auth.requires_membership(\'admin\')\ndef premise_edit():\n\tpremise = db.premise(request.args(0)) or redirect(URL(\'index\'))\n\tform = crud.update(db.premise, premise, next=\'premises\')\n\treturn locals()\n\n\n@cache.action()\ndef download():\n    """\n    allows downloading of uploaded files\n    http://..../[app]/default/download/[filename]\n    """\n    return response.download(request, db)\n\n\ndef call():\n    """\n    exposes services. for example:\n    http://..../[app]/default/call/jsonrpc\n    decorate with @services.jsonrpc the functions to expose\n    supports xml, json, xmlrpc, jsonrpc, amfrpc, rss, csv\n    """\n    return service()\n\n\n\n\n\'\'\'\n@auth.requires_membership(\'admin\')\ndef customer_logs():\n\tcontact = db.contact(request.args(0)) or redirect(URL(\'companies\'))\n\tdb.log.contact.default = contact.id\n\tdb.log.contact.readable = False\n\tdb.log.contact.writable = False\n\tdb.log.posted_on.default = request.now\n\tdb.log.posted_on.readable = False\n\tdb.log.posted_on.writable = False\n\tform = crud.create(db.log)\n\tlogs = db(db.log.contact==contact.id).select(orderby=db.log.posted_on)\n\treturn locals()\n\'\'\'\t\nresponse._vars=response._caller(products)\n'
p7
sS'snapshot'
p8
(dp9
S'exception'
p10
(dp11
S'__hash__'
p12
S"<method-wrapper '__hash__' of exceptions.UnboundLocalError object>"
p13
sS'__setattr__'
p14
S"<method-wrapper '__setattr__' of exceptions.UnboundLocalError object>"
p15
sS'__reduce_ex__'
p16
S'<built-in method __reduce_ex__ of exceptions.UnboundLocalError object>'
p17
sS'__getslice__'
p18
S"<method-wrapper '__getslice__' of exceptions.UnboundLocalError object>"
p19
sS'__getitem__'
p20
S"<method-wrapper '__getitem__' of exceptions.UnboundLocalError object>"
p21
sS'__setstate__'
p22
S'<built-in method __setstate__ of exceptions.UnboundLocalError object>'
p23
sS'__reduce__'
p24
S'<built-in method __reduce__ of exceptions.UnboundLocalError object>'
p25
sS'__str__'
p26
S"<method-wrapper '__str__' of exceptions.UnboundLocalError object>"
p27
sS'__format__'
p28
S'<built-in method __format__ of exceptions.UnboundLocalError object>'
p29
sS'__getattribute__'
p30
S"<method-wrapper '__getattribute__' of exceptions.UnboundLocalError object>"
p31
sS'__class__'
p32
S"<type 'exceptions.UnboundLocalError'>"
p33
sS'__unicode__'
p34
S'<built-in method __unicode__ of exceptions.UnboundLocalError object>'
p35
sS'__delattr__'
p36
S"<method-wrapper '__delattr__' of exceptions.UnboundLocalError object>"
p37
sS'__subclasshook__'
p38
S'<built-in method __subclasshook__ of type object>'
p39
sS'__repr__'
p40
S"<method-wrapper '__repr__' of exceptions.UnboundLocalError object>"
p41
sS'args'
p42
S'("local variable \'first_login\' referenced before assignment",)'
p43
sS'__dict__'
p44
S'{}'
p45
sS'__sizeof__'
p46
S'<built-in method __sizeof__ of exceptions.UnboundLocalError object>'
p47
sS'__doc__'
p48
S"'Local name referenced but not bound to a value.'"
p49
sS'__init__'
p50
S"<method-wrapper '__init__' of exceptions.UnboundLocalError object>"
p51
sS'__new__'
p52
S'<built-in method __new__ of type object>'
p53
ssS'evalue'
p54
S"local variable 'first_login' referenced before assignment"
p55
sS'request'
p56
cgluon.html
XML_unpickle
p57
(S's\x9eX\x00\x00<div><table><tr><td style="font-weight:bold;vertical-align:top;">ajax</td><td style="vertical-align:top;">:</td><td><div>False</div></td></tr><tr><td style="font-weight:bold;vertical-align:top;">application</td><td style="vertical-align:top;">:</td><td><div>thesakecellar</div></td></tr><tr><td style="font-weight:bold;vertical-align:top;">args</td><td style="vertical-align:top;">:</td><td><div><table></table></div></td></tr><tr><td style="font-weight:bold;vertical-align:top;">cid</td><td style="vertical-align:top;">:</td><td><div>None</div></td></tr><tr><td style="font-weight:bold;vertical-align:top;">client</td><td style="vertical-align:top;">:</td><td><div>127.0.0.1</div></td></tr><tr><td style="font-weight:bold;vertical-align:top;">controller</td><td style="vertical-align:top;">:</td><td><div>default</div></td></tr><tr><td style="font-weight:bold;vertical-align:top;">cookies</td><td style="vertical-align:top;">:</td><td><div><table><tr><td style="font-weight:bold;vertical-align:top;">session_id_admin</td><td style="vertical-align:top;">:</td><td><div>127.0.0.1-6e9c929e-9fce-4eb7-b3df-30123751373c<table><tr><td style="font-weight:bold;vertical-align:top;">comment</td><td style="vertical-align:top;">:</td><td><div></div></td></tr><tr><td style="font-weight:bold;vertical-align:top;">domain</td><td style="vertical-align:top;">:</td><td><div></div></td></tr><tr><td style="font-weight:bold;vertical-align:top;">expires</td><td style="vertical-align:top;">:</td><td><div></div></td></tr><tr><td style="font-weight:bold;vertical-align:top;">httponly</td><td style="vertical-align:top;">:</td><td><div></div></td></tr><tr><td style="font-weight:bold;vertical-align:top;">max-age</td><td style="vertical-align:top;">:</td><td><div></div></td></tr><tr><td style="font-weight:bold;vertical-align:top;">path</td><td style="vertical-align:top;">:</td><td><div></div></td></tr><tr><td style="font-weight:bold;vertical-align:top;">secure</td><td style="vertical-align:top;">:</td><td><div></div></td></tr><tr><td style="font-weight:bold;vertical-align:top;">version</td><td style="vertical-align:top;">:</td><td><div></div></td></tr></table></div></td></tr><tr><td style="font-weight:bold;vertical-align:top;">session_id_thesakecellar</td><td style="vertical-align:top;">:</td><td><div>127.0.0.1-752ec0a0-69f7-4a4e-9792-fd27a9f81263<table><tr><td style="font-weight:bold;vertical-align:top;">comment</td><td style="vertical-align:top;">:</td><td><div></div></td></tr><tr><td style="font-weight:bold;vertical-align:top;">domain</td><td style="vertical-align:top;">:</td><td><div></div></td></tr><tr><td style="font-weight:bold;vertical-align:top;">expires</td><td style="vertical-align:top;">:</td><td><div></div></td></tr><tr><td style="font-weight:bold;vertical-align:top;">httponly</td><td style="vertical-align:top;">:</td><td><div></div></td></tr><tr><td style="font-weight:bold;vertical-align:top;">max-age</td><td style="vertical-align:top;">:</td><td><div></div></td></tr><tr><td style="font-weight:bold;vertical-align:top;">path</td><td style="vertical-align:top;">:</td><td><div></div></td></tr><tr><td style="font-weight:bold;vertical-align:top;">secure</td><td style="vertical-align:top;">:</td><td><div></div></td></tr><tr><td style="font-weight:bold;vertical-align:top;">version</td><td style="vertical-align:top;">:</td><td><div></div></td></tr></table></div></td></tr></table></div></td></tr><tr><td style="font-weight:bold;vertical-align:top;">env</td><td style="vertical-align:top;">:</td><td><div><table><tr><td style="font-weight:bold;vertical-align:top;">HTTP_ACCEPT</td><td style="vertical-align:top;">:</td><td><div>text/html,application/xhtml+xml,application/xml;q=0.9,image/webp,*/*;q=0.8</div></td></tr><tr><td style="font-weight:bold;vertical-align:top;">HTTP_ACCEPT_ENCODING</td><td style="vertical-align:top;">:</td><td><div>gzip, deflate, sdch</div></td></tr><tr><td style="font-weight:bold;vertical-align:top;">HTTP_ACCEPT_LANGUAGE</td><td style="vertical-align:top;">:</td><td><div>ja,en-US;q=0.8,en;q=0.6</div></td></tr><tr><td style="font-weight:bold;vertical-align:top;">HTTP_CONNECTION</td><td style="vertical-align:top;">:</td><td><div>keep-alive</div></td></tr><tr><td style="font-weight:bold;vertical-align:top;">HTTP_COOKIE</td><td style="vertical-align:top;">:</td><td><div>session_id_thesakecellar=127.0.0.1-752ec0a0-69f7-4a4e-9792-fd27a9f81263; session_id_admin=127.0.0.1-6e9c929e-9fce-4eb7-b3df-30123751373c</div></td></tr><tr><td style="font-weight:bold;vertical-align:top;">HTTP_HOST</td><td style="vertical-align:top;">:</td><td><div>127.0.0.1:8000</div></td></tr><tr><td style="font-weight:bold;vertical-align:top;">HTTP_UPGRADE_INSECURE_REQUESTS</td><td style="vertical-align:top;">:</td><td><div>1</div></td></tr><tr><td style="font-weight:bold;vertical-align:top;">HTTP_USER_AGENT</td><td style="vertical-align:top;">:</td><td><div>Mozilla/5.0 (Windows NT 10.0; WOW64) AppleWebKit/537.36 (KHTML, like Gecko) Chrome/51.0.2704.103 Safari/537.36</div></td></tr><tr><td style="font-weight:bold;vertical-align:top;">PATH_INFO</td><td style="vertical-align:top;">:</td><td><div>/products</div></td></tr><tr><td style="font-weight:bold;vertical-align:top;">QUERY_STRING</td><td style="vertical-align:top;">:</td><td><div></div></td></tr><tr><td style="font-weight:bold;vertical-align:top;">REMOTE_ADDR</td><td style="vertical-align:top;">:</td><td><div>127.0.0.1</div></td></tr><tr><td style="font-weight:bold;vertical-align:top;">REMOTE_PORT</td><td style="vertical-align:top;">:</td><td><div>50955</div></td></tr><tr><td style="font-weight:bold;vertical-align:top;">REQUEST_METHOD</td><td style="vertical-align:top;">:</td><td><div>GET</div></td></tr><tr><td style="font-weight:bold;vertical-align:top;">SCRIPT_NAME</td><td style="vertical-align:top;">:</td><td><div></div></td></tr><tr><td style="font-weight:bold;vertical-align:top;">SERVER_NAME</td><td style="vertical-align:top;">:</td><td><div>Grace</div></td></tr><tr><td style="font-weight:bold;vertical-align:top;">SERVER_PORT</td><td style="vertical-align:top;">:</td><td><div>8000</div></td></tr><tr><td style="font-weight:bold;vertical-align:top;">SERVER_PROTOCOL</td><td style="vertical-align:top;">:</td><td><div>HTTP/1.1</div></td></tr><tr><td style="font-weight:bold;vertical-align:top;">SERVER_SOFTWARE</td><td style="vertical-align:top;">:</td><td><div>Rocket 1.2.6</div></td></tr><tr><td style="font-weight:bold;vertical-align:top;">app_folders</td><td style="vertical-align:top;">:</td><td><div>set([&#x27;C:\\\\Users\\\\Hiroshi\\\\Desktop\\\\web2py_src\\\\web2py\\\\applications\\\\admin\\\\&#x27;, &#x27;C:\\\\Users\\\\Hiroshi\\\\Desktop\\\\web2py_src\\\\web2py\\\\applications\\\\thesakecellar\\\\&#x27;])</div></td></tr><tr><td style="font-weight:bold;vertical-align:top;">applications_parent</td><td style="vertical-align:top;">:</td><td><div>C:\\Users\\Hiroshi\\Desktop\\web2py_src\\web2py</div></td></tr><tr><td style="font-weight:bold;vertical-align:top;">cmd_args</td><td style="vertical-align:top;">:</td><td><div><table></table></div></td></tr><tr><td style="font-weight:bold;vertical-align:top;">cmd_options</td><td style="vertical-align:top;">:</td><td><div>&lt;Values at 0x3c96058: {&#x27;verbose&#x27;: False, &#x27;ip&#x27;: &#x27;127.0.0.1&#x27;, &#x27;debuglevel&#x27;: 30, &#x27;with_scheduler&#x27;: False, &#x27;ips&#x27;: [&#x27;fe80::5c04:b79d:529c:b311%4&#x27;, &#x27;192.168.2.1&#x27;, &#x27;192.168.229.1&#x27;, &#x27;192.168.1.72&#x27;, &#x27;fe80::28d2:dcdc:45a1:1f9c%2&#x27;, &#x27;fe80::2093:bc47:9545:e11c%6&#x27;], &#x27;shutdown_timeout&#x27;: 5, &#x27;taskbar&#x27;: False, &#x27;with_coverage&#x27;: False, &#x27;scheduler_groups&#x27;: None, &#x27;port&#x27;: 8000, &#x27;maxthreads&#x27;: None, &#x27;softcron&#x27;: False, &#x27;server_name&#x27;: &#x27;Grace&#x27;, &#x27;bpython&#x27;: False, &#x27;nogui&#x27;: False, &#x27;pid_filename&#x27;: &#x27;httpserver.pid&#x27;, &#x27;print_errors&#x27;: False, &#x27;extcron&#x27;: False, &#x27;runcron&#x27;: False, &#x27;run_system_tests&#x27;: False, &#x27;test&#x27;: None, &#x27;folder&#x27;: &#x27;C:\\\\Users\\\\Hiroshi\\\\Desktop\\\\web2py_src\\\\web2py&#x27;, &#x27;config&#x27;: &#x27;&#x27;, &#x27;minthreads&#x27;: None, &#x27;shell&#x27;: None, &#x27;run&#x27;: &#x27;&#x27;, &#x27;log_filename&#x27;: &#x27;httpserver.log&#x27;, &#x27;profiler_dir&#x27;: None, &#x27;args&#x27;: [&#x27;&#x27;], &#x27;socket_timeout&#x27;: 5, &#x27;ssl_ca_certificate&#x27;: None, &#x27;scheduler&#x27;: None, &#x27;interfaces&#x27;: None, &#x27;ssl_private_key&#x27;: &#x27;&#x27;, &#x27;gae&#x27;: None, &#x27;password&#x27;: &#x27;&lt;ask&gt;&#x27;, &#x27;request_queue_size&#x27;: 5, &#x27;ssl_certificate&#x27;: &#x27;&#x27;, &#x27;cronjob&#x27;: False, &#x27;numthreads&#x27;: None, &#x27;quiet&#x27;: False, &#x27;import_models&#x27;: False, &#x27;timeout&#x27;: 10, &#x27;plain&#x27;: False, &#x27;nobanner&#x27;: False}&gt;</div></td></tr><tr><td style="font-weight:bold;vertical-align:top;">db_sessions</td><td style="vertical-align:top;">:</td><td><div>set([])</div></td></tr><tr><td style="font-weight:bold;vertical-align:top;">debugging</td><td style="vertical-align:top;">:</td><td><div>False</div></td></tr><tr><td style="font-weight:bold;vertical-align:top;">gluon_parent</td><td style="vertical-align:top;">:</td><td><div>C:\\Users\\Hiroshi\\Desktop\\web2py_src\\web2py</div></td></tr><tr><td style="font-weight:bold;vertical-align:top;">http_accept</td><td style="vertical-align:top;">:</td><td><div>text/html,application/xhtml+xml,application/xml;q=0.9,image/webp,*/*;q=0.8</div></td></tr><tr><td style="font-weight:bold;vertical-align:top;">http_accept_encoding</td><td style="vertical-align:top;">:</td><td><div>gzip, deflate, sdch</div></td></tr><tr><td style="font-weight:bold;vertical-align:top;">http_accept_language</td><td style="vertical-align:top;">:</td><td><div>ja,en-US;q=0.8,en;q=0.6</div></td></tr><tr><td style="font-weight:bold;vertical-align:top;">http_connection</td><td style="vertical-align:top;">:</td><td><div>keep-alive</div></td></tr><tr><td style="font-weight:bold;vertical-align:top;">http_cookie</td><td style="vertical-align:top;">:</td><td><div>session_id_thesakecellar=127.0.0.1-752ec0a0-69f7-4a4e-9792-fd27a9f81263; session_id_admin=127.0.0.1-6e9c929e-9fce-4eb7-b3df-30123751373c</div></td></tr><tr><td style="font-weight:bold;vertical-align:top;">http_host</td><td style="vertical-align:top;">:</td><td><div>127.0.0.1:8000</div></td></tr><tr><td style="font-weight:bold;vertical-align:top;">http_upgrade_insecure_requests</td><td style="vertical-align:top;">:</td><td><div>1</div></td></tr><tr><td style="font-weight:bold;vertical-align:top;">http_user_agent</td><td style="vertical-align:top;">:</td><td><div>Mozilla/5.0 (Windows NT 10.0; WOW64) AppleWebKit/537.36 (KHTML, like Gecko) Chrome/51.0.2704.103 Safari/537.36</div></td></tr><tr><td style="font-weight:bold;vertical-align:top;">is_jython</td><td style="vertical-align:top;">:</td><td><div>False</div></td></tr><tr><td style="font-weight:bold;vertical-align:top;">is_pypy</td><td style="vertical-align:top;">:</td><td><div>False</div></td></tr><tr><td style="font-weight:bold;vertical-align:top;">is_source</td><td style="vertical-align:top;">:</td><td><div>True</div></td></tr><tr><td style="font-weight:bold;vertical-align:top;">local_hosts</td><td style="vertical-align:top;">:</td><td><div><table><tr><td><div>fe80::5c04:b79d:529c:b311%4</div></td></tr><tr><td><div>192.168.2.1</div></td></tr><tr><td><div>192.168.229.1</div></td></tr><tr><td><div>::ffff:127.0.0.1</div></td></tr><tr><td><div>::1</div></td></tr><tr><td><div>192.168.1.72</div></td></tr><tr><td><div>fe80::28d2:dcdc:45a1:1f9c%2</div></td></tr><tr><td><div>fe80::2093:bc47:9545:e11c%6</div></td></tr><tr><td><div>Grace</div></td></tr><tr><td><div>127.0.0.1</div></td></tr></table></div></td></tr><tr><td style="font-weight:bold;vertical-align:top;">path_info</td><td style="vertical-align:top;">:</td><td><div>/products</div></td></tr><tr><td style="font-weight:bold;vertical-align:top;">query_string</td><td style="vertical-align:top;">:</td><td><div></div></td></tr><tr><td style="font-weight:bold;vertical-align:top;">remote_addr</td><td style="vertical-align:top;">:</td><td><div>127.0.0.1</div></td></tr><tr><td style="font-weight:bold;vertical-align:top;">remote_port</td><td style="vertical-align:top;">:</td><td><div>50955</div></td></tr><tr><td style="font-weight:bold;vertical-align:top;">request_method</td><td style="vertical-align:top;">:</td><td><div>GET</div></td></tr><tr><td style="font-weight:bold;vertical-align:top;">request_uri</td><td style="vertical-align:top;">:</td><td><div>/thesakecellar/default/products</div></td></tr><tr><td style="font-weight:bold;vertical-align:top;">script_name</td><td style="vertical-align:top;">:</td><td><div></div></td></tr><tr><td style="font-weight:bold;vertical-align:top;">server_name</td><td style="vertical-align:top;">:</td><td><div>Grace</div></td></tr><tr><td style="font-weight:bold;vertical-align:top;">server_port</td><td style="vertical-align:top;">:</td><td><div>8000</div></td></tr><tr><td style="font-weight:bold;vertical-align:top;">server_protocol</td><td style="vertical-align:top;">:</td><td><div>HTTP/1.1</div></td></tr><tr><td style="font-weight:bold;vertical-align:top;">server_software</td><td style="vertical-align:top;">:</td><td><div>Rocket 1.2.6</div></td></tr><tr><td style="font-weight:bold;vertical-align:top;">web2py_original_uri</td><td style="vertical-align:top;">:</td><td><div>/products</div></td></tr><tr><td style="font-weight:bold;vertical-align:top;">web2py_path</td><td style="vertical-align:top;">:</td><td><div>C:\\Users\\Hiroshi\\Desktop\\web2py_src\\web2py</div></td></tr><tr><td style="font-weight:bold;vertical-align:top;">web2py_version</td><td style="vertical-align:top;">:</td><td><div>2.13.4-stable+timestamp.2015.12.26.04.59.39</div></td></tr><tr><td style="font-weight:bold;vertical-align:top;">wsgi.errors</td><td style="vertical-align:top;">:</td><td><div>&lt;open file &#x27;&lt;stderr&gt;&#x27;, mode &#x27;w&#x27; at 0x02DBD0D0&gt;</div></td></tr><tr><td style="font-weight:bold;vertical-align:top;">wsgi.file_wrapper</td><td style="vertical-align:top;">:</td><td><div>&lt;class wsgiref.util.FileWrapper at 0x03C06068&gt;</div></td></tr><tr><td style="font-weight:bold;vertical-align:top;">wsgi.input</td><td style="vertical-align:top;">:</td><td><div>&lt;socket._fileobject object at 0x0A5EE330&gt;</div></td></tr><tr><td style="font-weight:bold;vertical-align:top;">wsgi.multiprocess</td><td style="vertical-align:top;">:</td><td><div>False</div></td></tr><tr><td style="font-weight:bold;vertical-align:top;">wsgi.multithread</td><td style="vertical-align:top;">:</td><td><div>True</div></td></tr><tr><td style="font-weight:bold;vertical-align:top;">wsgi.run_once</td><td style="vertical-align:top;">:</td><td><div>False</div></td></tr><tr><td style="font-weight:bold;vertical-align:top;">wsgi.url_scheme</td><td style="vertical-align:top;">:</td><td><div>http</div></td></tr><tr><td style="font-weight:bold;vertical-align:top;">wsgi.version</td><td style="vertical-align:top;">:</td><td><div><table><tr><td><div>1</div></td></tr><tr><td><div>0</div></td></tr></table></div></td></tr><tr><td style="font-weight:bold;vertical-align:top;">wsgi_errors</td><td style="vertical-align:top;">:</td><td><div>&lt;open file &#x27;&lt;stderr&gt;&#x27;, mode &#x27;w&#x27; at 0x02DBD0D0&gt;</div></td></tr><tr><td style="font-weight:bold;vertical-align:top;">wsgi_file_wrapper</td><td style="vertical-align:top;">:</td><td><div>&lt;class wsgiref.util.FileWrapper at 0x03C06068&gt;</div></td></tr><tr><td style="font-weight:bold;vertical-align:top;">wsgi_input</td><td style="vertical-align:top;">:</td><td><div>&lt;socket._fileobject object at 0x0A5EE330&gt;</div></td></tr><tr><td style="font-weight:bold;vertical-align:top;">wsgi_multiprocess</td><td style="vertical-align:top;">:</td><td><div>False</div></td></tr><tr><td style="font-weight:bold;vertical-align:top;">wsgi_multithread</td><td style="vertical-align:top;">:</td><td><div>True</div></td></tr><tr><td style="font-weight:bold;vertical-align:top;">wsgi_run_once</td><td style="vertical-align:top;">:</td><td><div>False</div></td></tr><tr><td style="font-weight:bold;vertical-align:top;">wsgi_url_scheme</td><td style="vertical-align:top;">:</td><td><div>http</div></td></tr><tr><td style="font-weight:bold;vertical-align:top;">wsgi_version</td><td style="vertical-align:top;">:</td><td><div><table><tr><td><div>1</div></td></tr><tr><td><div>0</div></td></tr></table></div></td></tr></table></div></td></tr><tr><td style="font-weight:bold;vertical-align:top;">extension</td><td style="vertical-align:top;">:</td><td><div>html</div></td></tr><tr><td style="font-weight:bold;vertical-align:top;">folder</td><td style="vertical-align:top;">:</td><td><div>C:\\Users\\Hiroshi\\Desktop\\web2py_src\\web2py\\applications\\thesakecellar\\</div></td></tr><tr><td style="font-weight:bold;vertical-align:top;">function</td><td style="vertical-align:top;">:</td><td><div>products</div></td></tr><tr><td style="font-weight:bold;vertical-align:top;">global_settings</td><td style="vertical-align:top;">:</td><td><div><table><tr><td style="font-weight:bold;vertical-align:top;">app_folders</td><td style="vertical-align:top;">:</td><td><div>set([&#x27;C:\\\\Users\\\\Hiroshi\\\\Desktop\\\\web2py_src\\\\web2py\\\\applications\\\\admin\\\\&#x27;, &#x27;C:\\\\Users\\\\Hiroshi\\\\Desktop\\\\web2py_src\\\\web2py\\\\applications\\\\thesakecellar\\\\&#x27;])</div></td></tr><tr><td style="font-weight:bold;vertical-align:top;">applications_parent</td><td style="vertical-align:top;">:</td><td><div>C:\\Users\\Hiroshi\\Desktop\\web2py_src\\web2py</div></td></tr><tr><td style="font-weight:bold;vertical-align:top;">cmd_args</td><td style="vertical-align:top;">:</td><td><div><table></table></div></td></tr><tr><td style="font-weight:bold;vertical-align:top;">cmd_options</td><td style="vertical-align:top;">:</td><td><div>&lt;Values at 0x3c96058: {&#x27;verbose&#x27;: False, &#x27;ip&#x27;: &#x27;127.0.0.1&#x27;, &#x27;debuglevel&#x27;: 30, &#x27;with_scheduler&#x27;: False, &#x27;ips&#x27;: [&#x27;fe80::5c04:b79d:529c:b311%4&#x27;, &#x27;192.168.2.1&#x27;, &#x27;192.168.229.1&#x27;, &#x27;192.168.1.72&#x27;, &#x27;fe80::28d2:dcdc:45a1:1f9c%2&#x27;, &#x27;fe80::2093:bc47:9545:e11c%6&#x27;], &#x27;shutdown_timeout&#x27;: 5, &#x27;taskbar&#x27;: False, &#x27;with_coverage&#x27;: False, &#x27;scheduler_groups&#x27;: None, &#x27;port&#x27;: 8000, &#x27;maxthreads&#x27;: None, &#x27;softcron&#x27;: False, &#x27;server_name&#x27;: &#x27;Grace&#x27;, &#x27;bpython&#x27;: False, &#x27;nogui&#x27;: False, &#x27;pid_filename&#x27;: &#x27;httpserver.pid&#x27;, &#x27;print_errors&#x27;: False, &#x27;extcron&#x27;: False, &#x27;runcron&#x27;: False, &#x27;run_system_tests&#x27;: False, &#x27;test&#x27;: None, &#x27;folder&#x27;: &#x27;C:\\\\Users\\\\Hiroshi\\\\Desktop\\\\web2py_src\\\\web2py&#x27;, &#x27;config&#x27;: &#x27;&#x27;, &#x27;minthreads&#x27;: None, &#x27;shell&#x27;: None, &#x27;run&#x27;: &#x27;&#x27;, &#x27;log_filename&#x27;: &#x27;httpserver.log&#x27;, &#x27;profiler_dir&#x27;: None, &#x27;args&#x27;: [&#x27;&#x27;], &#x27;socket_timeout&#x27;: 5, &#x27;ssl_ca_certificate&#x27;: None, &#x27;scheduler&#x27;: None, &#x27;interfaces&#x27;: None, &#x27;ssl_private_key&#x27;: &#x27;&#x27;, &#x27;gae&#x27;: None, &#x27;password&#x27;: &#x27;&lt;ask&gt;&#x27;, &#x27;request_queue_size&#x27;: 5, &#x27;ssl_certificate&#x27;: &#x27;&#x27;, &#x27;cronjob&#x27;: False, &#x27;numthreads&#x27;: None, &#x27;quiet&#x27;: False, &#x27;import_models&#x27;: False, &#x27;timeout&#x27;: 10, &#x27;plain&#x27;: False, &#x27;nobanner&#x27;: False}&gt;</div></td></tr><tr><td style="font-weight:bold;vertical-align:top;">db_sessions</td><td style="vertical-align:top;">:</td><td><div>set([])</div></td></tr><tr><td style="font-weight:bold;vertical-align:top;">debugging</td><td style="vertical-align:top;">:</td><td><div>False</div></td></tr><tr><td style="font-weight:bold;vertical-align:top;">gluon_parent</td><td style="vertical-align:top;">:</td><td><div>C:\\Users\\Hiroshi\\Desktop\\web2py_src\\web2py</div></td></tr><tr><td style="font-weight:bold;vertical-align:top;">is_jython</td><td style="vertical-align:top;">:</td><td><div>False</div></td></tr><tr><td style="font-weight:bold;vertical-align:top;">is_pypy</td><td style="vertical-align:top;">:</td><td><div>False</div></td></tr><tr><td style="font-weight:bold;vertical-align:top;">is_source</td><td style="vertical-align:top;">:</td><td><div>True</div></td></tr><tr><td style="font-weight:bold;vertical-align:top;">local_hosts</td><td style="vertical-align:top;">:</td><td><div><table><tr><td><div>fe80::5c04:b79d:529c:b311%4</div></td></tr><tr><td><div>192.168.2.1</div></td></tr><tr><td><div>192.168.229.1</div></td></tr><tr><td><div>::ffff:127.0.0.1</div></td></tr><tr><td><div>::1</div></td></tr><tr><td><div>192.168.1.72</div></td></tr><tr><td><div>fe80::28d2:dcdc:45a1:1f9c%2</div></td></tr><tr><td><div>fe80::2093:bc47:9545:e11c%6</div></td></tr><tr><td><div>Grace</div></td></tr><tr><td><div>127.0.0.1</div></td></tr></table></div></td></tr><tr><td style="font-weight:bold;vertical-align:top;">web2py_version</td><td style="vertical-align:top;">:</td><td><div>2.13.4-stable+timestamp.2015.12.26.04.59.39</div></td></tr></table></div></td></tr><tr><td style="font-weight:bold;vertical-align:top;">is_https</td><td style="vertical-align:top;">:</td><td><div>False</div></td></tr><tr><td style="font-weight:bold;vertical-align:top;">is_local</td><td style="vertical-align:top;">:</td><td><div>True</div></td></tr><tr><td style="font-weight:bold;vertical-align:top;">is_restful</td><td style="vertical-align:top;">:</td><td><div>False</div></td></tr><tr><td style="font-weight:bold;vertical-align:top;">is_scheduler</td><td style="vertical-align:top;">:</td><td><div>False</div></td></tr><tr><td style="font-weight:bold;vertical-align:top;">is_shell</td><td style="vertical-align:top;">:</td><td><div>False</div></td></tr><tr><td style="font-weight:bold;vertical-align:top;">now</td><td style="vertical-align:top;">:</td><td><div>datetime.datetime(2016, 7, 30, 23, 22, 13, 976000)</div></td></tr><tr><td style="font-weight:bold;vertical-align:top;">url</td><td style="vertical-align:top;">:</td><td><div>/products</div></td></tr><tr><td style="font-weight:bold;vertical-align:top;">utcnow</td><td style="vertical-align:top;">:</td><td><div>datetime.datetime(2016, 7, 30, 22, 22, 13, 976000)</div></td></tr><tr><td style="font-weight:bold;vertical-align:top;">wsgi</td><td style="vertical-align:top;">:</td><td><div>&lt;gluon.main.LazyWSGI object at 0x0A5F48D0&gt;</div></td></tr></table></div>'
tRp58
sS'frames'
p59
(lp60
(dp61
S'file'
p62
S'C:\\Users\\Hiroshi\\Desktop\\web2py_src\\web2py\\gluon\\restricted.py'
p63
sS'dump'
p64
(dp65
S'environment'
p66
S"{'A': <class 'gluon.html.A'>, 'ANY_OF': <class 'gluon.validators.ANY_OF'>, 'ASSIGNJS': <function ASSIGNJS>, 'Auth': <class 'gluon.tools.Auth'>, 'B': <class 'gluon.html.B'>, 'BEAUTIFY': <class 'gluon.html.BEAUTIFY'>, 'BODY': <class 'gluon.html.BODY'>, 'BR': <class 'gluon.html.BR'>, 'BUTTON': <class 'gluon.html.BUTTON'>, 'CAT': <class 'gluon.html.CAT'>, ...}"
p67
sS'ccode'
p68
S'<code object <module> at 09A19EC0, file "C:\\User...s\\thesakecellar\\controllers/default.py", line 14>'
p69
ssS'lnum'
p70
I227
sS'lines'
p71
(dp72
I224
S'            ccode = code'
p73
sI225
S'        else:'
p74
sI226
S'            ccode = compile2(code, layer)'
p75
sI227
S'        exec ccode in environment'
p76
sI228
S'    except HTTP:'
p77
sI229
S'        raise'
p78
sI230
S'    except RestrictedError:'
p79
sI231
S'        # do not encapsulate (obfuscate) the original RestrictedError'
p80
sI222
S'    try:'
p81
sI223
S'        if isinstance(code, types.CodeType):'
p82
ssS'call'
p83
S'(code="# -*- coding: utf-8 -*-\\n# this file is released ...)\\n\'\'\'\\t\\nresponse._vars=response._caller(products)\\n", environment={\'A\': <class \'gluon.html.A\'>, \'ANY_OF\': <class \'gluon.validators.ANY_OF\'>, \'ASSIGNJS\': <function ASSIGNJS>, \'Auth\': <class \'gluon.tools.Auth\'>, \'B\': <class \'gluon.html.B\'>, \'BEAUTIFY\': <class \'gluon.html.BEAUTIFY\'>, \'BODY\': <class \'gluon.html.BODY\'>, \'BR\': <class \'gluon.html.BR\'>, \'BUTTON\': <class \'gluon.html.BUTTON\'>, \'CAT\': <class \'gluon.html.CAT\'>, ...}, layer=r\'C:\\Users\\Hiroshi\\Desktop\\web2py_src\\web2py\\applications\\thesakecellar\\controllers/default.py\')'
p84
sS'func'
p85
S'restricted'
p86
sa(dp87
g62
S'C:\\Users\\Hiroshi\\Desktop\\web2py_src\\web2py\\applications\\thesakecellar\\controllers\\default.py'
p88
sg64
(dp89
sg70
I387
sg71
(dp90
I384
S'\tlogs = db(db.log.contact==contact.id).select(orderby=db.log.posted_on)'
p91
sI385
S'\treturn locals()'
p92
sI386
S"'''"
p93
sI377
S'\tdb.log.contact.default = contact.id'
p94
sI378
S'\tdb.log.contact.readable = False'
p95
sI379
S'\tdb.log.contact.writable = False'
p96
sI380
S'\tdb.log.posted_on.default = request.now'
p97
sI381
S'\tdb.log.posted_on.readable = False'
p98
sI382
S'\tdb.log.posted_on.writable = False'
p99
sI383
S'\tform = crud.create(db.log)'
p100
ssg83
S'()'
p101
sg85
S'<module>'
p102
sa(dp103
g62
S'C:\\Users\\Hiroshi\\Desktop\\web2py_src\\web2py\\gluon\\globals.py'
p104
sg64
(dp105
S'self'
p106
S'undefined'
p107
sS'f'
S'<function products>'
p108
ssg70
I412
sg71
(dp109
I416
S"        self.generic_patterns = ['*']"
p110
sI407
S"        self.flash = ''            # used by the default view layout"
p111
sI408
S'        self.meta = Storage()      # used by web2py_ajax.html'
p112
sI409
S'        self.menu = []             # used by the default view layout'
p113
sI410
S'        self.files = []            # used by web2py_ajax.html'
p114
sI411
S'        self._vars = None'
p115
sI412
S'        self._caller = lambda f: f()'
p116
sI413
S'        self._view_environment = None'
p117
sI414
S'        self._custom_commit = None'
p118
sI415
S'        self._custom_rollback = None'
p119
ssg83
S'(f=<function products>)'
p120
sg85
S'<lambda>'
p121
sa(dp122
g62
S'C:\\Users\\Hiroshi\\Desktop\\web2py_src\\web2py\\applications\\thesakecellar\\controllers\\default.py'
p123
sg64
(dp124
S'global first_login'
p125
S'0'
ssg70
I40
sg71
(dp126
I35
S''
sI36
S'def products():'
p127
sI37
S'\timport datetime'
p128
sI38
S"\tif auth.user is None: redirect(URL('login'))"
p129
sI39
S''
sI40
S'\tif first_login == 0:'
p130
sI41
S'\t\t#send notification email to service@thesakecellar.com'
p131
sI42
S'\t\tname = auth.user.first_name + " " + auth.user.last_name'
p132
sI43
S'\t\tcompany = auth.user.company_name'
p133
sI44
S'\t\tnow = datetime.datetime.now()'
p134
ssg83
S'()'
p135
sg85
S'products'
p136
sasS'pyver'
p137
S'Python 2.7.11: C:\\Python27\\python.exe (prefix: C:\\Python27)'
p138
sS'session'
p139
g57
(S's\xb5\x0c\x00\x00<div><table><tr><td style="font-weight:bold;vertical-align:top;">auth</td><td style="vertical-align:top;">:</td><td><div><table><tr><td style="font-weight:bold;vertical-align:top;">expiration</td><td style="vertical-align:top;">:</td><td><div>3600</div></td></tr><tr><td style="font-weight:bold;vertical-align:top;">hmac_key</td><td style="vertical-align:top;">:</td><td><div>4ae1b90c-831c-4261-96f0-f41458d5f27d</div></td></tr><tr><td style="font-weight:bold;vertical-align:top;">last_visit</td><td style="vertical-align:top;">:</td><td><div>datetime.datetime(2016, 7, 30, 23, 21, 29, 640000)</div></td></tr><tr><td style="font-weight:bold;vertical-align:top;">remember_me</td><td style="vertical-align:top;">:</td><td><div>False</div></td></tr><tr><td style="font-weight:bold;vertical-align:top;">user</td><td style="vertical-align:top;">:</td><td><div><table><tr><td style="font-weight:bold;vertical-align:top;">company_homepage</td><td style="vertical-align:top;">:</td><td><div></div></td></tr><tr><td style="font-weight:bold;vertical-align:top;">company_name</td><td style="vertical-align:top;">:</td><td><div>2OR3 LTD</div></td></tr><tr><td style="font-weight:bold;vertical-align:top;">email</td><td style="vertical-align:top;">:</td><td><div>anachanpapa@gmail.com</div></td></tr><tr><td style="font-weight:bold;vertical-align:top;">first_name</td><td style="vertical-align:top;">:</td><td><div>Hiroshi</div></td></tr><tr><td style="font-weight:bold;vertical-align:top;">id</td><td style="vertical-align:top;">:</td><td><div>1L</div></td></tr><tr><td style="font-weight:bold;vertical-align:top;">last_name</td><td style="vertical-align:top;">:</td><td><div>Sasaki</div></td></tr><tr><td style="font-weight:bold;vertical-align:top;">office_address</td><td style="vertical-align:top;">:</td><td><div>2 Andover Close</div></td></tr><tr><td style="font-weight:bold;vertical-align:top;">phone_number</td><td style="vertical-align:top;">:</td><td><div>02085757185</div></td></tr><tr><td style="font-weight:bold;vertical-align:top;">postcode</td><td style="vertical-align:top;">:</td><td><div>UB6 9QW</div></td></tr><tr><td style="font-weight:bold;vertical-align:top;">registration_id</td><td style="vertical-align:top;">:</td><td><div></div></td></tr><tr><td style="font-weight:bold;vertical-align:top;">registration_key</td><td style="vertical-align:top;">:</td><td><div></div></td></tr><tr><td style="font-weight:bold;vertical-align:top;">reset_password_key</td><td style="vertical-align:top;">:</td><td><div></div></td></tr><tr><td style="font-weight:bold;vertical-align:top;">title</td><td style="vertical-align:top;">:</td><td><div>admin</div></td></tr></table></div></td></tr><tr><td style="font-weight:bold;vertical-align:top;">user_groups</td><td style="vertical-align:top;">:</td><td><div><table><tr><td style="font-weight:bold;vertical-align:top;">1</td><td style="vertical-align:top;">:</td><td><div>user_1</div></td></tr><tr><td style="font-weight:bold;vertical-align:top;">4</td><td style="vertical-align:top;">:</td><td><div>admin</div></td></tr></table></div></td></tr></table></div></td></tr><tr><td style="font-weight:bold;vertical-align:top;">flash</td><td style="vertical-align:top;">:</td><td><div>None</div></td></tr></table></div>'
tRp140
sS'etype'
p141
S"<type 'exceptions.UnboundLocalError'>"
p142
sS'date'
p143
S'Sat Jul 30 23:22:14 2016'
p144
sS'response'
p145
g57
(S's#\x1a\x00\x00<div><table><tr><td style="font-weight:bold;vertical-align:top;">body</td><td style="vertical-align:top;">:</td><td><div>&lt;cStringIO.StringO object at 0x0A5F4B60&gt;</div></td></tr><tr><td style="font-weight:bold;vertical-align:top;">cookies</td><td style="vertical-align:top;">:</td><td><div><table><tr><td style="font-weight:bold;vertical-align:top;">session_id_thesakecellar</td><td style="vertical-align:top;">:</td><td><div>127.0.0.1-752ec0a0-69f7-4a4e-9792-fd27a9f81263<table><tr><td style="font-weight:bold;vertical-align:top;">comment</td><td style="vertical-align:top;">:</td><td><div></div></td></tr><tr><td style="font-weight:bold;vertical-align:top;">domain</td><td style="vertical-align:top;">:</td><td><div></div></td></tr><tr><td style="font-weight:bold;vertical-align:top;">expires</td><td style="vertical-align:top;">:</td><td><div></div></td></tr><tr><td style="font-weight:bold;vertical-align:top;">httponly</td><td style="vertical-align:top;">:</td><td><div></div></td></tr><tr><td style="font-weight:bold;vertical-align:top;">max-age</td><td style="vertical-align:top;">:</td><td><div></div></td></tr><tr><td style="font-weight:bold;vertical-align:top;">path</td><td style="vertical-align:top;">:</td><td><div>/</div></td></tr><tr><td style="font-weight:bold;vertical-align:top;">secure</td><td style="vertical-align:top;">:</td><td><div></div></td></tr><tr><td style="font-weight:bold;vertical-align:top;">version</td><td style="vertical-align:top;">:</td><td><div></div></td></tr></table></div></td></tr></table></div></td></tr><tr><td style="font-weight:bold;vertical-align:top;">delimiters</td><td style="vertical-align:top;">:</td><td><div><table><tr><td><div>{{</div></td></tr><tr><td><div>}}</div></td></tr></table></div></td></tr><tr><td style="font-weight:bold;vertical-align:top;">files</td><td style="vertical-align:top;">:</td><td><div><table></table></div></td></tr><tr><td style="font-weight:bold;vertical-align:top;">flash</td><td style="vertical-align:top;">:</td><td><div>Logged in</div></td></tr><tr><td style="font-weight:bold;vertical-align:top;">form_label_separator</td><td style="vertical-align:top;">:</td><td><div>: </div></td></tr><tr><td style="font-weight:bold;vertical-align:top;">formstyle</td><td style="vertical-align:top;">:</td><td><div>table3cols</div></td></tr><tr><td style="font-weight:bold;vertical-align:top;">generic_patterns</td><td style="vertical-align:top;">:</td><td><div><table><tr><td><div>*</div></td></tr></table></div></td></tr><tr><td style="font-weight:bold;vertical-align:top;">headers</td><td style="vertical-align:top;">:</td><td><div><table><tr><td style="font-weight:bold;vertical-align:top;">X-Powered-By</td><td style="vertical-align:top;">:</td><td><div>web2py</div></td></tr></table></div></td></tr><tr><td style="font-weight:bold;vertical-align:top;">menu</td><td style="vertical-align:top;">:</td><td><div><table><tr><td><div><table><tr><td><div>Companies</div></td></tr><tr><td><div>False</div></td></tr><tr><td><div>/companies</div></td></tr></table></div></td></tr><tr><td><div><table><tr><td><div>Companies</div></td></tr><tr><td><div>False</div></td></tr><tr><td><div>/companies</div></td></tr></table></div></td></tr><tr><td><div><table><tr><td><div>Companies</div></td></tr><tr><td><div>False</div></td></tr><tr><td><div>/companies</div></td></tr></table></div></td></tr></table></div></td></tr><tr><td style="font-weight:bold;vertical-align:top;">meta</td><td style="vertical-align:top;">:</td><td><div><table></table></div></td></tr><tr><td style="font-weight:bold;vertical-align:top;">models_to_run</td><td style="vertical-align:top;">:</td><td><div><table><tr><td><div>^\\w+\\.py$</div></td></tr><tr><td><div>^default/\\w+\\.py$</div></td></tr><tr><td><div>^default/products/\\w+\\.py$</div></td></tr></table></div></td></tr><tr><td style="font-weight:bold;vertical-align:top;">postprocessing</td><td style="vertical-align:top;">:</td><td><div><table></table></div></td></tr><tr><td style="font-weight:bold;vertical-align:top;">session_client</td><td style="vertical-align:top;">:</td><td><div>127.0.0.1</div></td></tr><tr><td style="font-weight:bold;vertical-align:top;">session_cookie_compression_level</td><td style="vertical-align:top;">:</td><td><div>None</div></td></tr><tr><td style="font-weight:bold;vertical-align:top;">session_cookie_expires</td><td style="vertical-align:top;">:</td><td><div>None</div></td></tr><tr><td style="font-weight:bold;vertical-align:top;">session_cookie_key</td><td style="vertical-align:top;">:</td><td><div>None</div></td></tr><tr><td style="font-weight:bold;vertical-align:top;">session_data_name</td><td style="vertical-align:top;">:</td><td><div>session_data_thesakecellar</div></td></tr><tr><td style="font-weight:bold;vertical-align:top;">session_file</td><td style="vertical-align:top;">:</td><td><div>&lt;open file &#x27;C:\\\\Users\\\\Hiroshi\\\\Desktop\\\\web2py_src\\\\web2py\\\\applications\\\\thesakecellar\\\\sessions\\\\179\\\\1bf\\\\127.0.0.1-752ec0a0-69f7-4a4e-9792-fd27a9f81263&#x27;, mode &#x27;rb+&#x27; at 0x0A0060D0&gt;</div></td></tr><tr><td style="font-weight:bold;vertical-align:top;">session_filename</td><td style="vertical-align:top;">:</td><td><div>C:\\Users\\Hiroshi\\Desktop\\web2py_src\\web2py\\applications\\thesakecellar\\sessions\\127.0.0.1-752ec0a0-69f7-4a4e-9792-fd27a9f81263</div></td></tr><tr><td style="font-weight:bold;vertical-align:top;">session_hash</td><td style="vertical-align:top;">:</td><td><div>2b9fe8a1c7df2091e8e935afb4b958bd</div></td></tr><tr><td style="font-weight:bold;vertical-align:top;">session_id</td><td style="vertical-align:top;">:</td><td><div>127.0.0.1-752ec0a0-69f7-4a4e-9792-fd27a9f81263</div></td></tr><tr><td style="font-weight:bold;vertical-align:top;">session_id_name</td><td style="vertical-align:top;">:</td><td><div>session_id_thesakecellar</div></td></tr><tr><td style="font-weight:bold;vertical-align:top;">session_locked</td><td style="vertical-align:top;">:</td><td><div>True</div></td></tr><tr><td style="font-weight:bold;vertical-align:top;">session_masterapp</td><td style="vertical-align:top;">:</td><td><div>thesakecellar</div></td></tr><tr><td style="font-weight:bold;vertical-align:top;">session_new</td><td style="vertical-align:top;">:</td><td><div>False</div></td></tr><tr><td style="font-weight:bold;vertical-align:top;">session_storage_type</td><td style="vertical-align:top;">:</td><td><div>file</div></td></tr><tr><td style="font-weight:bold;vertical-align:top;">status</td><td style="vertical-align:top;">:</td><td><div>200</div></td></tr><tr><td style="font-weight:bold;vertical-align:top;">view</td><td style="vertical-align:top;">:</td><td><div>default/products.html</div></td></tr></table></div>'
tRp146
sS'locals'
p147
(dp148
S'datetime'
p149
S"<module 'datetime' (built-in)>"
p150
sssS'traceback'
p151
S'Traceback (most recent call last):\n  File "C:\\Users\\Hiroshi\\Desktop\\web2py_src\\web2py\\gluon\\restricted.py", line 227, in restricted\n    exec ccode in environment\n  File "C:\\Users\\Hiroshi\\Desktop\\web2py_src\\web2py\\applications\\thesakecellar\\controllers/default.py", line 387, in <module>\n  File "C:\\Users\\Hiroshi\\Desktop\\web2py_src\\web2py\\gluon\\globals.py", line 412, in <lambda>\n    self._caller = lambda f: f()\n  File "C:\\Users\\Hiroshi\\Desktop\\web2py_src\\web2py\\applications\\thesakecellar\\controllers/default.py", line 40, in products\n    if first_login == 0:\nUnboundLocalError: local variable \'first_login\' referenced before assignment\n'
p152
s.