(dp1
S'output'
p2
S"<type 'exceptions.IOError'> [Errno 13] Permission denied"
p3
sS'layer'
p4
S'C:\\Users\\Hiroshi\\Desktop\\web2py_src\\web2py\\applications\\thesakecellar\\models\\db.py'
p5
sS'code'
p6
S'from gluon.tools import *\n\n"""\n#db = DAL(settings.db_uri)\ndb = DAL(\'sqlite://storage.sqlite\')\nif settings.db_uri.startswith(\'gae\'):\n\tsession.connect(request, response, db = db)\n"""\n\n\nif not request.env.web2py_runtime_gae:     \n    ## if NOT running on Google App Engine use SQLite or other DB\n    db = DAL(\'sqlite://storage.sqlite\')\n    #db4ajax = DAL(\'sqlite://db.db\')  \nelse:\n    ## connect to Google BigTable (optional \'google:datastore://namespace\')\n    db = DAL(\'google:datastore\') \n    ## store sessions and tickets there\n    session.connect(request, response, db = db) \n    ## or store session in Memcache, Redis, etc.\n    ## from gluon.contrib.memdb import MEMDB\n    ## from google.appengine.api.memcache import Client\n    ## session.connect(request, response, db = MEMDB(Client()))\n\n\t\nmail = Mail() # mailer\nauth = Auth(db) # authentication/authorization\n\nauth.settings.actions_disabled.append(\'register\')\n\ndb.define_table( \n    auth.settings.table_user_name, \n    Field(\'first_name\', length=128, default=\'\'), \n    Field(\'last_name\', length=128, default=\'\'), \n    Field(\'email\', length=128, default=\'\', unique=True), \n\tField(\'company_name\', length=128, default=\'\'),\n\tField(\'company_homepage\', length=128, default=\'\'),\t\n\tField(\'office_address\', length=128, default=\'\'),\n\tField(\'postcode\', length=128),\n\tField(\'phone_number\', requires=IS_MATCH(\'[\\d\\-\\(\\) ]+\')),\n\tField(\'title\', length=128, default=\'\'),\n    Field(\'password\', \'password\', length=512, readable=False, label=\'Password\'), \n    Field(\'registration_key\', length=512, writable=False, readable=False, default=\'\'), \n    Field(\'reset_password_key\', length=512, writable=False, readable=False, default=\'\'), \n    Field(\'registration_id\', length=512, writable=False, readable=False, default=\'\'), \n    format=\'%(first_name)s %(last_name)s\')\n\n\t\ndb.auth_user.email.widget = lambda f,v: SQLFORM.widgets.string.widget(f, v, _placeholder=\'Email\')\ndb.auth_user.first_name.widget = lambda f,v: SQLFORM.widgets.string.widget(f, v, _placeholder=\'First Name\')\ndb.auth_user.last_name.widget = lambda f,v: SQLFORM.widgets.string.widget(f, v, _placeholder=\'Last Name\')\ndb.auth_user.password.widget = lambda f,v: SQLFORM.widgets.password.widget(f, v, _placeholder=\'Password\')\n#db.auth_user.password_two.widget = lambda f,v: SQLFORM.widgets.password.widget(f, v, _placeholder=\'Password\')\ndb.auth_user.company_name.widget = lambda f,v: SQLFORM.widgets.string.widget(f, v, _placeholder=\'Company Name\')\n#db.auth_user.company_category.widget = lambda f,v: SQLFORM.widgets.string.widget(f, v, _placeholder=\'Company Category\')\ndb.auth_user.company_homepage.widget = lambda f,v: SQLFORM.widgets.string.widget(f, v, _placeholder=\'Homepage(optional): e.g. http://yourcompany.com\')\ndb.auth_user.phone_number.widget = lambda f,v: SQLFORM.widgets.string.widget(f, v, _placeholder=\'Phone Number\')\ndb.auth_user.office_address.widget = lambda f,v: SQLFORM.widgets.string.widget(f, v, _placeholder=\'Office Address\')\ndb.auth_user.postcode.widget = lambda f,v: SQLFORM.widgets.string.widget(f, v, _placeholder=\'Postcode\')\ndb.auth_user.title.widget = lambda f,v: SQLFORM.widgets.string.widget(f, v, _placeholder=\'Job Title\')\n\nmember = db[auth.settings.table_user_name] # get the custom_auth_table \nmember.first_name.requires = IS_NOT_EMPTY(error_message=auth.messages.is_empty) \nmember.last_name.requires = IS_NOT_EMPTY(error_message=auth.messages.is_empty)\n\nmember.company_name.requires = IS_NOT_EMPTY(error_message=auth.messages.is_empty) \nmember.phone_number.requires = IS_NOT_EMPTY(error_message=auth.messages.is_empty) \nmember.office_address.requires = IS_NOT_EMPTY(error_message=auth.messages.is_empty)\nmember.postcode.requires = IS_NOT_EMPTY(error_message=auth.messages.is_empty) \nmember.postcode.requires = [IS_MATCH(\'^[a-zA-Z0-9_\\- ]{5,8}$\',error_message=\'wrong postcode\')]\nmember.title.requires = IS_NOT_EMPTY(error_message=auth.messages.is_empty) \n\nmember.password.requires = [IS_MATCH(\'^[a-zA-Z0-9_!@\\#$%\\\xcb\x86\\&\\(\\)\\{\\}\\[\\]\\-\\+]{6,20}$\',error_message=\'length: from 6 to 20\'),IS_MATCH(\'[A-Z]+\',\'need more than 1 upper case characters \'), CRYPT()]\n#member.password.requires = [IS_STRONG(min=5, special=0, upper=0), CRYPT()]\nmember.email.requires = IS_NOT_EMPTY(error_message=auth.messages.is_empty) \nmember.email.requires = [IS_EMAIL(error_message=auth.messages.invalid_email), IS_NOT_IN_DB(db, \'auth_user.email\')]\n\n\ncrud = Crud(db) # for CRUD helpers using auth\nservice = Service() # for json, xml, jsonrpc, xmlrpc, amfrpc\nplugins = PluginManager()\n\n# enable generic views for all actions for testing purpose\nresponse.generic_patterns = [\'*\']\n\nmail.settings.server = settings.email_server\nmail.settings.sender = settings.email_sender\nmail.settings.login = settings.email_login\nauth.settings.hmac_key = settings.security_key\n\n# add any extra fields you may want to add to auth_user\nauth.settings.extra_fields[\'auth_user\'] = []\n\n# user username as well as email\nauth.define_tables(migrate=settings.migrate,username=True)\nauth.settings.mailer = mail\nauth.settings.registration_requires_verification = False\nauth.settings.registration_requires_approval = False\n\n# login session expiration time\nauth.settings.expiration = 3600 # seconds\nauth.settings.remember_me_form = False\n\n# post login redirection\nauth.settings.login_next = URL(r=request, c=\'default\', f=\'products\')\n\n# post logout redirection\nauth.settings.logout_next = URL(r=request, c=\'default\', f=\'index\')\n\n\nauth.messages.verify_email = \'Click on the link http://\' \\\n\t+ request.env.http_host + URL(\'default\',\'user\',\n\targs=[\'verify_email\']) \\\n\t+ \'/%(key)s to verify your email\'\n\t\nauth.settings.reset_password_requires_verification = True\n\nauth.messages.reset_password = \'Click on the link http://\' \\\n\t+ request.env.http_host + URL(\'default\',\'user\',\n\targs=[\'reset_password\']) \\\n\t+ \'/%(key)s to reset your password\'\n\t\nif settings.login_method==\'janrain\':\n\tfrom gluon.contrib.login_methods.rpx_account import RPXAccount\n\tauth.settings.actions_disabled=[\'register\', \'change_password\', \'request_reset_password\']\n\tauth.settings.login_form = RPXAccount(request,\n\t\tapi_key = settings.login_config.split(\':\')[-1],\n\t\tdomain = settings.login_config.split(\':\')[0],\n\t\turl = "http://%s/%s/default/user/login" % \\\n\t\t(request.env.http_host, request.application))\n\n\t\t\n'
p7
sS'snapshot'
p8
(dp9
S'exception'
p10
(dp11
S'__getslice__'
p12
S"<method-wrapper '__getslice__' of exceptions.IOError object>"
p13
sS'__str__'
p14
S"<method-wrapper '__str__' of exceptions.IOError object>"
p15
sS'__reduce__'
p16
S'<built-in method __reduce__ of exceptions.IOError object>'
p17
sS'__dict__'
p18
S'{}'
p19
sS'__sizeof__'
p20
S'<built-in method __sizeof__ of exceptions.IOError object>'
p21
sS'__init__'
p22
S"<method-wrapper '__init__' of exceptions.IOError object>"
p23
sS'__setattr__'
p24
S"<method-wrapper '__setattr__' of exceptions.IOError object>"
p25
sS'__reduce_ex__'
p26
S'<built-in method __reduce_ex__ of exceptions.IOError object>'
p27
sS'__new__'
p28
S'<built-in method __new__ of type object>'
p29
sS'errno'
p30
S'13'
p31
sS'__format__'
p32
S'<built-in method __format__ of exceptions.IOError object>'
p33
sS'__class__'
p34
S"<type 'exceptions.IOError'>"
p35
sS'filename'
p36
S'None'
p37
sS'__doc__'
p38
S"'I/O operation failed.'"
p39
sS'__getitem__'
p40
S"<method-wrapper '__getitem__' of exceptions.IOError object>"
p41
sS'__setstate__'
p42
S'<built-in method __setstate__ of exceptions.IOError object>'
p43
sS'__getattribute__'
p44
S"<method-wrapper '__getattribute__' of exceptions.IOError object>"
p45
sS'args'
p46
S"(13, 'Permission denied')"
p47
sS'__subclasshook__'
p48
S'<built-in method __subclasshook__ of type object>'
p49
sS'__unicode__'
p50
S'<built-in method __unicode__ of exceptions.IOError object>'
p51
sS'strerror'
p52
S"'Permission denied'"
p53
sS'__delattr__'
p54
S"<method-wrapper '__delattr__' of exceptions.IOError object>"
p55
sS'__repr__'
p56
S"<method-wrapper '__repr__' of exceptions.IOError object>"
p57
sS'__hash__'
p58
S"<method-wrapper '__hash__' of exceptions.IOError object>"
p59
ssS'evalue'
p60
S'[Errno 13] Permission denied'
p61
sS'request'
p62
cgluon.html
XML_unpickle
p63
(S's\x16a\x00\x00<div><table><tr><td style="font-weight:bold;vertical-align:top;">ajax</td><td style="vertical-align:top;">:</td><td><div>False</div></td></tr><tr><td style="font-weight:bold;vertical-align:top;">application</td><td style="vertical-align:top;">:</td><td><div>thesakecellar</div></td></tr><tr><td style="font-weight:bold;vertical-align:top;">args</td><td style="vertical-align:top;">:</td><td><div><table></table></div></td></tr><tr><td style="font-weight:bold;vertical-align:top;">cid</td><td style="vertical-align:top;">:</td><td><div>None</div></td></tr><tr><td style="font-weight:bold;vertical-align:top;">client</td><td style="vertical-align:top;">:</td><td><div>127.0.0.1</div></td></tr><tr><td style="font-weight:bold;vertical-align:top;">controller</td><td style="vertical-align:top;">:</td><td><div>default</div></td></tr><tr><td style="font-weight:bold;vertical-align:top;">cookies</td><td style="vertical-align:top;">:</td><td><div><table><tr><td style="font-weight:bold;vertical-align:top;">session_id_admin</td><td style="vertical-align:top;">:</td><td><div>127.0.0.1-6e9c929e-9fce-4eb7-b3df-30123751373c<table><tr><td style="font-weight:bold;vertical-align:top;">comment</td><td style="vertical-align:top;">:</td><td><div></div></td></tr><tr><td style="font-weight:bold;vertical-align:top;">domain</td><td style="vertical-align:top;">:</td><td><div></div></td></tr><tr><td style="font-weight:bold;vertical-align:top;">expires</td><td style="vertical-align:top;">:</td><td><div></div></td></tr><tr><td style="font-weight:bold;vertical-align:top;">httponly</td><td style="vertical-align:top;">:</td><td><div></div></td></tr><tr><td style="font-weight:bold;vertical-align:top;">max-age</td><td style="vertical-align:top;">:</td><td><div></div></td></tr><tr><td style="font-weight:bold;vertical-align:top;">path</td><td style="vertical-align:top;">:</td><td><div></div></td></tr><tr><td style="font-weight:bold;vertical-align:top;">secure</td><td style="vertical-align:top;">:</td><td><div></div></td></tr><tr><td style="font-weight:bold;vertical-align:top;">version</td><td style="vertical-align:top;">:</td><td><div></div></td></tr></table></div></td></tr><tr><td style="font-weight:bold;vertical-align:top;">session_id_thesakecellar</td><td style="vertical-align:top;">:</td><td><div>127.0.0.1-fc1b8443-5efa-492a-a2cc-021cc936d2d2<table><tr><td style="font-weight:bold;vertical-align:top;">comment</td><td style="vertical-align:top;">:</td><td><div></div></td></tr><tr><td style="font-weight:bold;vertical-align:top;">domain</td><td style="vertical-align:top;">:</td><td><div></div></td></tr><tr><td style="font-weight:bold;vertical-align:top;">expires</td><td style="vertical-align:top;">:</td><td><div></div></td></tr><tr><td style="font-weight:bold;vertical-align:top;">httponly</td><td style="vertical-align:top;">:</td><td><div></div></td></tr><tr><td style="font-weight:bold;vertical-align:top;">max-age</td><td style="vertical-align:top;">:</td><td><div></div></td></tr><tr><td style="font-weight:bold;vertical-align:top;">path</td><td style="vertical-align:top;">:</td><td><div></div></td></tr><tr><td style="font-weight:bold;vertical-align:top;">secure</td><td style="vertical-align:top;">:</td><td><div></div></td></tr><tr><td style="font-weight:bold;vertical-align:top;">version</td><td style="vertical-align:top;">:</td><td><div></div></td></tr></table></div></td></tr></table></div></td></tr><tr><td style="font-weight:bold;vertical-align:top;">env</td><td style="vertical-align:top;">:</td><td><div><table><tr><td style="font-weight:bold;vertical-align:top;">CONTENT_LENGTH</td><td style="vertical-align:top;">:</td><td><div>0</div></td></tr><tr><td style="font-weight:bold;vertical-align:top;">CONTENT_TYPE</td><td style="vertical-align:top;">:</td><td><div>application/x-www-form-urlencoded</div></td></tr><tr><td style="font-weight:bold;vertical-align:top;">HTTP_ACCEPT</td><td style="vertical-align:top;">:</td><td><div>text/html,application/xhtml+xml,application/xml;q=0.9,image/webp,*/*;q=0.8</div></td></tr><tr><td style="font-weight:bold;vertical-align:top;">HTTP_ACCEPT_ENCODING</td><td style="vertical-align:top;">:</td><td><div>gzip, deflate</div></td></tr><tr><td style="font-weight:bold;vertical-align:top;">HTTP_ACCEPT_LANGUAGE</td><td style="vertical-align:top;">:</td><td><div>ja,en-US;q=0.8,en;q=0.6</div></td></tr><tr><td style="font-weight:bold;vertical-align:top;">HTTP_CACHE_CONTROL</td><td style="vertical-align:top;">:</td><td><div>max-age=0</div></td></tr><tr><td style="font-weight:bold;vertical-align:top;">HTTP_CONNECTION</td><td style="vertical-align:top;">:</td><td><div>keep-alive</div></td></tr><tr><td style="font-weight:bold;vertical-align:top;">HTTP_CONTENT_LENGTH</td><td style="vertical-align:top;">:</td><td><div>0</div></td></tr><tr><td style="font-weight:bold;vertical-align:top;">HTTP_CONTENT_TYPE</td><td style="vertical-align:top;">:</td><td><div>application/x-www-form-urlencoded</div></td></tr><tr><td style="font-weight:bold;vertical-align:top;">HTTP_COOKIE</td><td style="vertical-align:top;">:</td><td><div>session_id_admin=127.0.0.1-6e9c929e-9fce-4eb7-b3df-30123751373c; session_id_thesakecellar=127.0.0.1-fc1b8443-5efa-492a-a2cc-021cc936d2d2</div></td></tr><tr><td style="font-weight:bold;vertical-align:top;">HTTP_HOST</td><td style="vertical-align:top;">:</td><td><div>127.0.0.1:8000</div></td></tr><tr><td style="font-weight:bold;vertical-align:top;">HTTP_ORIGIN</td><td style="vertical-align:top;">:</td><td><div>http://127.0.0.1:8000</div></td></tr><tr><td style="font-weight:bold;vertical-align:top;">HTTP_REFERER</td><td style="vertical-align:top;">:</td><td><div>http://127.0.0.1:8000/cart</div></td></tr><tr><td style="font-weight:bold;vertical-align:top;">HTTP_UPGRADE_INSECURE_REQUESTS</td><td style="vertical-align:top;">:</td><td><div>1</div></td></tr><tr><td style="font-weight:bold;vertical-align:top;">HTTP_USER_AGENT</td><td style="vertical-align:top;">:</td><td><div>Mozilla/5.0 (Windows NT 10.0; WOW64) AppleWebKit/537.36 (KHTML, like Gecko) Chrome/51.0.2704.103 Safari/537.36</div></td></tr><tr><td style="font-weight:bold;vertical-align:top;">PATH_INFO</td><td style="vertical-align:top;">:</td><td><div>/order_options</div></td></tr><tr><td style="font-weight:bold;vertical-align:top;">QUERY_STRING</td><td style="vertical-align:top;">:</td><td><div></div></td></tr><tr><td style="font-weight:bold;vertical-align:top;">REMOTE_ADDR</td><td style="vertical-align:top;">:</td><td><div>127.0.0.1</div></td></tr><tr><td style="font-weight:bold;vertical-align:top;">REMOTE_PORT</td><td style="vertical-align:top;">:</td><td><div>50594</div></td></tr><tr><td style="font-weight:bold;vertical-align:top;">REQUEST_METHOD</td><td style="vertical-align:top;">:</td><td><div>POST</div></td></tr><tr><td style="font-weight:bold;vertical-align:top;">SCRIPT_NAME</td><td style="vertical-align:top;">:</td><td><div></div></td></tr><tr><td style="font-weight:bold;vertical-align:top;">SERVER_NAME</td><td style="vertical-align:top;">:</td><td><div>Grace</div></td></tr><tr><td style="font-weight:bold;vertical-align:top;">SERVER_PORT</td><td style="vertical-align:top;">:</td><td><div>8000</div></td></tr><tr><td style="font-weight:bold;vertical-align:top;">SERVER_PROTOCOL</td><td style="vertical-align:top;">:</td><td><div>HTTP/1.1</div></td></tr><tr><td style="font-weight:bold;vertical-align:top;">SERVER_SOFTWARE</td><td style="vertical-align:top;">:</td><td><div>Rocket 1.2.6</div></td></tr><tr><td style="font-weight:bold;vertical-align:top;">app_folders</td><td style="vertical-align:top;">:</td><td><div>set([&#x27;C:\\\\Users\\\\Hiroshi\\\\Desktop\\\\web2py_src\\\\web2py\\\\applications\\\\admin\\\\&#x27;, &#x27;C:\\\\Users\\\\Hiroshi\\\\Desktop\\\\web2py_src\\\\web2py\\\\applications\\\\thesakecellar\\\\&#x27;])</div></td></tr><tr><td style="font-weight:bold;vertical-align:top;">applications_parent</td><td style="vertical-align:top;">:</td><td><div>C:\\Users\\Hiroshi\\Desktop\\web2py_src\\web2py</div></td></tr><tr><td style="font-weight:bold;vertical-align:top;">cmd_args</td><td style="vertical-align:top;">:</td><td><div><table></table></div></td></tr><tr><td style="font-weight:bold;vertical-align:top;">cmd_options</td><td style="vertical-align:top;">:</td><td><div>&lt;Values at 0x3b77058: {&#x27;verbose&#x27;: False, &#x27;ip&#x27;: &#x27;127.0.0.1&#x27;, &#x27;debuglevel&#x27;: 30, &#x27;with_scheduler&#x27;: False, &#x27;ips&#x27;: [&#x27;fe80::5c04:b79d:529c:b311%4&#x27;, &#x27;192.168.2.1&#x27;, &#x27;192.168.229.1&#x27;, &#x27;192.168.1.72&#x27;, &#x27;fe80::28d2:dcdc:45a1:1f9c%2&#x27;, &#x27;fe80::2093:bc47:9545:e11c%6&#x27;], &#x27;shutdown_timeout&#x27;: 5, &#x27;taskbar&#x27;: False, &#x27;with_coverage&#x27;: False, &#x27;scheduler_groups&#x27;: None, &#x27;port&#x27;: 8000, &#x27;maxthreads&#x27;: None, &#x27;softcron&#x27;: False, &#x27;server_name&#x27;: &#x27;Grace&#x27;, &#x27;bpython&#x27;: False, &#x27;nogui&#x27;: False, &#x27;pid_filename&#x27;: &#x27;httpserver.pid&#x27;, &#x27;print_errors&#x27;: False, &#x27;extcron&#x27;: False, &#x27;runcron&#x27;: False, &#x27;run_system_tests&#x27;: False, &#x27;test&#x27;: None, &#x27;folder&#x27;: &#x27;C:\\\\Users\\\\Hiroshi\\\\Desktop\\\\web2py_src\\\\web2py&#x27;, &#x27;config&#x27;: &#x27;&#x27;, &#x27;minthreads&#x27;: None, &#x27;shell&#x27;: None, &#x27;run&#x27;: &#x27;&#x27;, &#x27;log_filename&#x27;: &#x27;httpserver.log&#x27;, &#x27;profiler_dir&#x27;: None, &#x27;args&#x27;: [&#x27;&#x27;], &#x27;socket_timeout&#x27;: 5, &#x27;ssl_ca_certificate&#x27;: None, &#x27;scheduler&#x27;: None, &#x27;interfaces&#x27;: None, &#x27;ssl_private_key&#x27;: &#x27;&#x27;, &#x27;gae&#x27;: None, &#x27;password&#x27;: &#x27;&lt;ask&gt;&#x27;, &#x27;request_queue_size&#x27;: 5, &#x27;ssl_certificate&#x27;: &#x27;&#x27;, &#x27;cronjob&#x27;: False, &#x27;numthreads&#x27;: None, &#x27;quiet&#x27;: False, &#x27;import_models&#x27;: False, &#x27;timeout&#x27;: 10, &#x27;plain&#x27;: False, &#x27;nobanner&#x27;: False}&gt;</div></td></tr><tr><td style="font-weight:bold;vertical-align:top;">content_length</td><td style="vertical-align:top;">:</td><td><div>0</div></td></tr><tr><td style="font-weight:bold;vertical-align:top;">content_type</td><td style="vertical-align:top;">:</td><td><div>application/x-www-form-urlencoded</div></td></tr><tr><td style="font-weight:bold;vertical-align:top;">db_sessions</td><td style="vertical-align:top;">:</td><td><div>set([])</div></td></tr><tr><td style="font-weight:bold;vertical-align:top;">debugging</td><td style="vertical-align:top;">:</td><td><div>False</div></td></tr><tr><td style="font-weight:bold;vertical-align:top;">gluon_parent</td><td style="vertical-align:top;">:</td><td><div>C:\\Users\\Hiroshi\\Desktop\\web2py_src\\web2py</div></td></tr><tr><td style="font-weight:bold;vertical-align:top;">http_accept</td><td style="vertical-align:top;">:</td><td><div>text/html,application/xhtml+xml,application/xml;q=0.9,image/webp,*/*;q=0.8</div></td></tr><tr><td style="font-weight:bold;vertical-align:top;">http_accept_encoding</td><td style="vertical-align:top;">:</td><td><div>gzip, deflate</div></td></tr><tr><td style="font-weight:bold;vertical-align:top;">http_accept_language</td><td style="vertical-align:top;">:</td><td><div>ja,en-US;q=0.8,en;q=0.6</div></td></tr><tr><td style="font-weight:bold;vertical-align:top;">http_cache_control</td><td style="vertical-align:top;">:</td><td><div>max-age=0</div></td></tr><tr><td style="font-weight:bold;vertical-align:top;">http_connection</td><td style="vertical-align:top;">:</td><td><div>keep-alive</div></td></tr><tr><td style="font-weight:bold;vertical-align:top;">http_content_length</td><td style="vertical-align:top;">:</td><td><div>0</div></td></tr><tr><td style="font-weight:bold;vertical-align:top;">http_content_type</td><td style="vertical-align:top;">:</td><td><div>application/x-www-form-urlencoded</div></td></tr><tr><td style="font-weight:bold;vertical-align:top;">http_cookie</td><td style="vertical-align:top;">:</td><td><div>session_id_admin=127.0.0.1-6e9c929e-9fce-4eb7-b3df-30123751373c; session_id_thesakecellar=127.0.0.1-fc1b8443-5efa-492a-a2cc-021cc936d2d2</div></td></tr><tr><td style="font-weight:bold;vertical-align:top;">http_host</td><td style="vertical-align:top;">:</td><td><div>127.0.0.1:8000</div></td></tr><tr><td style="font-weight:bold;vertical-align:top;">http_origin</td><td style="vertical-align:top;">:</td><td><div>http://127.0.0.1:8000</div></td></tr><tr><td style="font-weight:bold;vertical-align:top;">http_referer</td><td style="vertical-align:top;">:</td><td><div>http://127.0.0.1:8000/cart</div></td></tr><tr><td style="font-weight:bold;vertical-align:top;">http_upgrade_insecure_requests</td><td style="vertical-align:top;">:</td><td><div>1</div></td></tr><tr><td style="font-weight:bold;vertical-align:top;">http_user_agent</td><td style="vertical-align:top;">:</td><td><div>Mozilla/5.0 (Windows NT 10.0; WOW64) AppleWebKit/537.36 (KHTML, like Gecko) Chrome/51.0.2704.103 Safari/537.36</div></td></tr><tr><td style="font-weight:bold;vertical-align:top;">is_jython</td><td style="vertical-align:top;">:</td><td><div>False</div></td></tr><tr><td style="font-weight:bold;vertical-align:top;">is_pypy</td><td style="vertical-align:top;">:</td><td><div>False</div></td></tr><tr><td style="font-weight:bold;vertical-align:top;">is_source</td><td style="vertical-align:top;">:</td><td><div>True</div></td></tr><tr><td style="font-weight:bold;vertical-align:top;">local_hosts</td><td style="vertical-align:top;">:</td><td><div><table><tr><td><div>fe80::5c04:b79d:529c:b311%4</div></td></tr><tr><td><div>192.168.2.1</div></td></tr><tr><td><div>192.168.229.1</div></td></tr><tr><td><div>::ffff:127.0.0.1</div></td></tr><tr><td><div>::1</div></td></tr><tr><td><div>192.168.1.72</div></td></tr><tr><td><div>fe80::28d2:dcdc:45a1:1f9c%2</div></td></tr><tr><td><div>fe80::2093:bc47:9545:e11c%6</div></td></tr><tr><td><div>Grace</div></td></tr><tr><td><div>127.0.0.1</div></td></tr></table></div></td></tr><tr><td style="font-weight:bold;vertical-align:top;">path_info</td><td style="vertical-align:top;">:</td><td><div>/order_options</div></td></tr><tr><td style="font-weight:bold;vertical-align:top;">query_string</td><td style="vertical-align:top;">:</td><td><div></div></td></tr><tr><td style="font-weight:bold;vertical-align:top;">remote_addr</td><td style="vertical-align:top;">:</td><td><div>127.0.0.1</div></td></tr><tr><td style="font-weight:bold;vertical-align:top;">remote_port</td><td style="vertical-align:top;">:</td><td><div>50594</div></td></tr><tr><td style="font-weight:bold;vertical-align:top;">request_method</td><td style="vertical-align:top;">:</td><td><div>POST</div></td></tr><tr><td style="font-weight:bold;vertical-align:top;">request_uri</td><td style="vertical-align:top;">:</td><td><div>/thesakecellar/default/order_options</div></td></tr><tr><td style="font-weight:bold;vertical-align:top;">script_name</td><td style="vertical-align:top;">:</td><td><div></div></td></tr><tr><td style="font-weight:bold;vertical-align:top;">server_name</td><td style="vertical-align:top;">:</td><td><div>Grace</div></td></tr><tr><td style="font-weight:bold;vertical-align:top;">server_port</td><td style="vertical-align:top;">:</td><td><div>8000</div></td></tr><tr><td style="font-weight:bold;vertical-align:top;">server_protocol</td><td style="vertical-align:top;">:</td><td><div>HTTP/1.1</div></td></tr><tr><td style="font-weight:bold;vertical-align:top;">server_software</td><td style="vertical-align:top;">:</td><td><div>Rocket 1.2.6</div></td></tr><tr><td style="font-weight:bold;vertical-align:top;">web2py_original_uri</td><td style="vertical-align:top;">:</td><td><div>/order_options</div></td></tr><tr><td style="font-weight:bold;vertical-align:top;">web2py_path</td><td style="vertical-align:top;">:</td><td><div>C:\\Users\\Hiroshi\\Desktop\\web2py_src\\web2py</div></td></tr><tr><td style="font-weight:bold;vertical-align:top;">web2py_version</td><td style="vertical-align:top;">:</td><td><div>2.13.4-stable+timestamp.2015.12.26.04.59.39</div></td></tr><tr><td style="font-weight:bold;vertical-align:top;">wsgi.errors</td><td style="vertical-align:top;">:</td><td><div>&lt;open file &#x27;&lt;stderr&gt;&#x27;, mode &#x27;w&#x27; at 0x02BFD0D0&gt;</div></td></tr><tr><td style="font-weight:bold;vertical-align:top;">wsgi.file_wrapper</td><td style="vertical-align:top;">:</td><td><div>&lt;class wsgiref.util.FileWrapper at 0x03AE7068&gt;</div></td></tr><tr><td style="font-weight:bold;vertical-align:top;">wsgi.input</td><td style="vertical-align:top;">:</td><td><div>&lt;socket._fileobject object at 0x0A45D930&gt;</div></td></tr><tr><td style="font-weight:bold;vertical-align:top;">wsgi.multiprocess</td><td style="vertical-align:top;">:</td><td><div>False</div></td></tr><tr><td style="font-weight:bold;vertical-align:top;">wsgi.multithread</td><td style="vertical-align:top;">:</td><td><div>True</div></td></tr><tr><td style="font-weight:bold;vertical-align:top;">wsgi.run_once</td><td style="vertical-align:top;">:</td><td><div>False</div></td></tr><tr><td style="font-weight:bold;vertical-align:top;">wsgi.url_scheme</td><td style="vertical-align:top;">:</td><td><div>http</div></td></tr><tr><td style="font-weight:bold;vertical-align:top;">wsgi.version</td><td style="vertical-align:top;">:</td><td><div><table><tr><td><div>1</div></td></tr><tr><td><div>0</div></td></tr></table></div></td></tr><tr><td style="font-weight:bold;vertical-align:top;">wsgi_errors</td><td style="vertical-align:top;">:</td><td><div>&lt;open file &#x27;&lt;stderr&gt;&#x27;, mode &#x27;w&#x27; at 0x02BFD0D0&gt;</div></td></tr><tr><td style="font-weight:bold;vertical-align:top;">wsgi_file_wrapper</td><td style="vertical-align:top;">:</td><td><div>&lt;class wsgiref.util.FileWrapper at 0x03AE7068&gt;</div></td></tr><tr><td style="font-weight:bold;vertical-align:top;">wsgi_input</td><td style="vertical-align:top;">:</td><td><div>&lt;socket._fileobject object at 0x0A45D930&gt;</div></td></tr><tr><td style="font-weight:bold;vertical-align:top;">wsgi_multiprocess</td><td style="vertical-align:top;">:</td><td><div>False</div></td></tr><tr><td style="font-weight:bold;vertical-align:top;">wsgi_multithread</td><td style="vertical-align:top;">:</td><td><div>True</div></td></tr><tr><td style="font-weight:bold;vertical-align:top;">wsgi_run_once</td><td style="vertical-align:top;">:</td><td><div>False</div></td></tr><tr><td style="font-weight:bold;vertical-align:top;">wsgi_url_scheme</td><td style="vertical-align:top;">:</td><td><div>http</div></td></tr><tr><td style="font-weight:bold;vertical-align:top;">wsgi_version</td><td style="vertical-align:top;">:</td><td><div><table><tr><td><div>1</div></td></tr><tr><td><div>0</div></td></tr></table></div></td></tr></table></div></td></tr><tr><td style="font-weight:bold;vertical-align:top;">extension</td><td style="vertical-align:top;">:</td><td><div>html</div></td></tr><tr><td style="font-weight:bold;vertical-align:top;">folder</td><td style="vertical-align:top;">:</td><td><div>C:\\Users\\Hiroshi\\Desktop\\web2py_src\\web2py\\applications\\thesakecellar\\</div></td></tr><tr><td style="font-weight:bold;vertical-align:top;">function</td><td style="vertical-align:top;">:</td><td><div>order_options</div></td></tr><tr><td style="font-weight:bold;vertical-align:top;">global_settings</td><td style="vertical-align:top;">:</td><td><div><table><tr><td style="font-weight:bold;vertical-align:top;">app_folders</td><td style="vertical-align:top;">:</td><td><div>set([&#x27;C:\\\\Users\\\\Hiroshi\\\\Desktop\\\\web2py_src\\\\web2py\\\\applications\\\\admin\\\\&#x27;, &#x27;C:\\\\Users\\\\Hiroshi\\\\Desktop\\\\web2py_src\\\\web2py\\\\applications\\\\thesakecellar\\\\&#x27;])</div></td></tr><tr><td style="font-weight:bold;vertical-align:top;">applications_parent</td><td style="vertical-align:top;">:</td><td><div>C:\\Users\\Hiroshi\\Desktop\\web2py_src\\web2py</div></td></tr><tr><td style="font-weight:bold;vertical-align:top;">cmd_args</td><td style="vertical-align:top;">:</td><td><div><table></table></div></td></tr><tr><td style="font-weight:bold;vertical-align:top;">cmd_options</td><td style="vertical-align:top;">:</td><td><div>&lt;Values at 0x3b77058: {&#x27;verbose&#x27;: False, &#x27;ip&#x27;: &#x27;127.0.0.1&#x27;, &#x27;debuglevel&#x27;: 30, &#x27;with_scheduler&#x27;: False, &#x27;ips&#x27;: [&#x27;fe80::5c04:b79d:529c:b311%4&#x27;, &#x27;192.168.2.1&#x27;, &#x27;192.168.229.1&#x27;, &#x27;192.168.1.72&#x27;, &#x27;fe80::28d2:dcdc:45a1:1f9c%2&#x27;, &#x27;fe80::2093:bc47:9545:e11c%6&#x27;], &#x27;shutdown_timeout&#x27;: 5, &#x27;taskbar&#x27;: False, &#x27;with_coverage&#x27;: False, &#x27;scheduler_groups&#x27;: None, &#x27;port&#x27;: 8000, &#x27;maxthreads&#x27;: None, &#x27;softcron&#x27;: False, &#x27;server_name&#x27;: &#x27;Grace&#x27;, &#x27;bpython&#x27;: False, &#x27;nogui&#x27;: False, &#x27;pid_filename&#x27;: &#x27;httpserver.pid&#x27;, &#x27;print_errors&#x27;: False, &#x27;extcron&#x27;: False, &#x27;runcron&#x27;: False, &#x27;run_system_tests&#x27;: False, &#x27;test&#x27;: None, &#x27;folder&#x27;: &#x27;C:\\\\Users\\\\Hiroshi\\\\Desktop\\\\web2py_src\\\\web2py&#x27;, &#x27;config&#x27;: &#x27;&#x27;, &#x27;minthreads&#x27;: None, &#x27;shell&#x27;: None, &#x27;run&#x27;: &#x27;&#x27;, &#x27;log_filename&#x27;: &#x27;httpserver.log&#x27;, &#x27;profiler_dir&#x27;: None, &#x27;args&#x27;: [&#x27;&#x27;], &#x27;socket_timeout&#x27;: 5, &#x27;ssl_ca_certificate&#x27;: None, &#x27;scheduler&#x27;: None, &#x27;interfaces&#x27;: None, &#x27;ssl_private_key&#x27;: &#x27;&#x27;, &#x27;gae&#x27;: None, &#x27;password&#x27;: &#x27;&lt;ask&gt;&#x27;, &#x27;request_queue_size&#x27;: 5, &#x27;ssl_certificate&#x27;: &#x27;&#x27;, &#x27;cronjob&#x27;: False, &#x27;numthreads&#x27;: None, &#x27;quiet&#x27;: False, &#x27;import_models&#x27;: False, &#x27;timeout&#x27;: 10, &#x27;plain&#x27;: False, &#x27;nobanner&#x27;: False}&gt;</div></td></tr><tr><td style="font-weight:bold;vertical-align:top;">db_sessions</td><td style="vertical-align:top;">:</td><td><div>set([])</div></td></tr><tr><td style="font-weight:bold;vertical-align:top;">debugging</td><td style="vertical-align:top;">:</td><td><div>False</div></td></tr><tr><td style="font-weight:bold;vertical-align:top;">gluon_parent</td><td style="vertical-align:top;">:</td><td><div>C:\\Users\\Hiroshi\\Desktop\\web2py_src\\web2py</div></td></tr><tr><td style="font-weight:bold;vertical-align:top;">is_jython</td><td style="vertical-align:top;">:</td><td><div>False</div></td></tr><tr><td style="font-weight:bold;vertical-align:top;">is_pypy</td><td style="vertical-align:top;">:</td><td><div>False</div></td></tr><tr><td style="font-weight:bold;vertical-align:top;">is_source</td><td style="vertical-align:top;">:</td><td><div>True</div></td></tr><tr><td style="font-weight:bold;vertical-align:top;">local_hosts</td><td style="vertical-align:top;">:</td><td><div><table><tr><td><div>fe80::5c04:b79d:529c:b311%4</div></td></tr><tr><td><div>192.168.2.1</div></td></tr><tr><td><div>192.168.229.1</div></td></tr><tr><td><div>::ffff:127.0.0.1</div></td></tr><tr><td><div>::1</div></td></tr><tr><td><div>192.168.1.72</div></td></tr><tr><td><div>fe80::28d2:dcdc:45a1:1f9c%2</div></td></tr><tr><td><div>fe80::2093:bc47:9545:e11c%6</div></td></tr><tr><td><div>Grace</div></td></tr><tr><td><div>127.0.0.1</div></td></tr></table></div></td></tr><tr><td style="font-weight:bold;vertical-align:top;">web2py_version</td><td style="vertical-align:top;">:</td><td><div>2.13.4-stable+timestamp.2015.12.26.04.59.39</div></td></tr></table></div></td></tr><tr><td style="font-weight:bold;vertical-align:top;">is_https</td><td style="vertical-align:top;">:</td><td><div>False</div></td></tr><tr><td style="font-weight:bold;vertical-align:top;">is_local</td><td style="vertical-align:top;">:</td><td><div>True</div></td></tr><tr><td style="font-weight:bold;vertical-align:top;">is_restful</td><td style="vertical-align:top;">:</td><td><div>False</div></td></tr><tr><td style="font-weight:bold;vertical-align:top;">is_scheduler</td><td style="vertical-align:top;">:</td><td><div>False</div></td></tr><tr><td style="font-weight:bold;vertical-align:top;">is_shell</td><td style="vertical-align:top;">:</td><td><div>False</div></td></tr><tr><td style="font-weight:bold;vertical-align:top;">now</td><td style="vertical-align:top;">:</td><td><div>datetime.datetime(2016, 7, 29, 11, 36, 15, 212000)</div></td></tr><tr><td style="font-weight:bold;vertical-align:top;">url</td><td style="vertical-align:top;">:</td><td><div>/order_options</div></td></tr><tr><td style="font-weight:bold;vertical-align:top;">utcnow</td><td style="vertical-align:top;">:</td><td><div>datetime.datetime(2016, 7, 29, 10, 36, 15, 212000)</div></td></tr><tr><td style="font-weight:bold;vertical-align:top;">wsgi</td><td style="vertical-align:top;">:</td><td><div>&lt;gluon.main.LazyWSGI object at 0x0A32E970&gt;</div></td></tr></table></div>'
tRp64
sS'frames'
p65
(lp66
(dp67
S'file'
p68
S'C:\\Users\\Hiroshi\\Desktop\\web2py_src\\web2py\\gluon\\restricted.py'
p69
sS'dump'
p70
(dp71
S'environment'
p72
S"{'A': <class 'gluon.html.A'>, 'ANY_OF': <class 'gluon.validators.ANY_OF'>, 'ASSIGNJS': <function ASSIGNJS>, 'Auth': <class 'gluon.tools.Auth'>, 'B': <class 'gluon.html.B'>, 'BEAUTIFY': <class 'gluon.html.BEAUTIFY'>, 'BODY': <class 'gluon.html.BODY'>, 'BR': <class 'gluon.html.BR'>, 'BUTTON': <class 'gluon.html.BUTTON'>, 'CAT': <class 'gluon.html.CAT'>, ...}"
p73
sS'ccode'
p74
S'<code object <module> at 0AB211D0, file "C:\\User...applications\\thesakecellar\\models\\db.py", line 1>'
p75
ssS'lnum'
p76
I227
sS'lines'
p77
(dp78
I224
S'            ccode = code'
p79
sI225
S'        else:'
p80
sI226
S'            ccode = compile2(code, layer)'
p81
sI227
S'        exec ccode in environment'
p82
sI228
S'    except HTTP:'
p83
sI229
S'        raise'
p84
sI230
S'    except RestrictedError:'
p85
sI231
S'        # do not encapsulate (obfuscate) the original RestrictedError'
p86
sI222
S'    try:'
p87
sI223
S'        if isinstance(code, types.CodeType):'
p88
ssS'call'
p89
S'(code=\'from gluon.tools import *\\n\\n"""\\n#db = DAL(setting...request.env.http_host, request.application))\\n\\n\\t\\t\\n\', environment={\'A\': <class \'gluon.html.A\'>, \'ANY_OF\': <class \'gluon.validators.ANY_OF\'>, \'ASSIGNJS\': <function ASSIGNJS>, \'Auth\': <class \'gluon.tools.Auth\'>, \'B\': <class \'gluon.html.B\'>, \'BEAUTIFY\': <class \'gluon.html.BEAUTIFY\'>, \'BODY\': <class \'gluon.html.BODY\'>, \'BR\': <class \'gluon.html.BR\'>, \'BUTTON\': <class \'gluon.html.BUTTON\'>, \'CAT\': <class \'gluon.html.CAT\'>, ...}, layer=r\'C:\\Users\\Hiroshi\\Desktop\\web2py_src\\web2py\\applications\\thesakecellar\\models\\db.py\')'
p90
sS'func'
p91
S'restricted'
p92
sa(dp93
g68
S'C:\\Users\\Hiroshi\\Desktop\\web2py_src\\web2py\\applications\\thesakecellar\\models\\db.py'
p94
sg70
(dp95
S'builtinformat'
p96
S'<built-in function format>'
p97
ssg76
I46
sg77
(dp98
I41
S"\tField('title', length=128, default=''),"
p99
sI42
S"    Field('password', 'password', length=512, readable=False, label='Password'),"
p100
sI43
S"    Field('registration_key', length=512, writable=False, readable=False, default=''),"
p101
sI44
S"    Field('reset_password_key', length=512, writable=False, readable=False, default=''),"
p102
sI45
S"    Field('registration_id', length=512, writable=False, readable=False, default=''),"
p103
sI46
S"    format='%(first_name)s %(last_name)s')"
p104
sI47
S''
sI48
S''
sI49
S"db.auth_user.email.widget = lambda f,v: SQLFORM.widgets.string.widget(f, v, _placeholder='Email')"
p105
sI50
S"db.auth_user.first_name.widget = lambda f,v: SQLFORM.widgets.string.widget(f, v, _placeholder='First Name')"
p106
ssg89
S'()'
p107
sg91
S'<module>'
p108
sa(dp109
g68
S'C:\\Users\\Hiroshi\\Desktop\\web2py_src\\web2py\\gluon\\packages\\dal\\pydal\\base.py'
p110
sg70
(dp111
S'fields'
p112
S'(<pydal.objects.Field object>, <pydal.objects.Field object>, <pydal.objects.Field object>, <pydal.objects.Field object>, <pydal.objects.Field object>, <pydal.objects.Field object>, <pydal.objects.Field object>, <pydal.objects.Field object>, <pydal.objects.Field object>, <pydal.objects.Field object>, <pydal.objects.Field object>, <pydal.objects.Field object>, <pydal.objects.Field object>)'
p113
sS'self'
p114
S'<DAL uri="sqlite://storage.sqlite">'
p115
sS'args'
p116
S"{'format': '%(first_name)s %(last_name)s'}"
p117
sS'tablename'
p118
S"'auth_user'"
p119
sS'table'
p120
S'undefined'
p121
sS'self.lazy_define_table'
p122
S'<bound method DAL.lazy_define_table of <DAL uri="sqlite://storage.sqlite">>'
p123
ssg76
I834
sg77
(dp124
I832
S'            table = None'
p125
sI833
S'        else:'
p126
sI834
S'            table = self.lazy_define_table(tablename,*fields,**args)'
p127
sI835
S'        if not tablename in self.tables:'
p128
sI836
S'            self.tables.append(tablename)'
p129
sI837
S'        return table'
p130
sI838
S''
sI829
S'                    % (tablename,invalid_args))'
p131
sI830
S'        if self._lazy_tables and tablename not in self._LAZY_TABLES:'
p132
sI831
S'            self._LAZY_TABLES[tablename] = (tablename,fields,args)'
p133
ssg89
S'(self=<DAL uri="sqlite://storage.sqlite">, tablename=\'auth_user\', *fields=(<pydal.objects.Field object>, <pydal.objects.Field object>, <pydal.objects.Field object>, <pydal.objects.Field object>, <pydal.objects.Field object>, <pydal.objects.Field object>, <pydal.objects.Field object>, <pydal.objects.Field object>, <pydal.objects.Field object>, <pydal.objects.Field object>, <pydal.objects.Field object>, <pydal.objects.Field object>, <pydal.objects.Field object>), **args={\'format\': \'%(first_name)s %(last_name)s\'})'
p134
sg91
S'define_table'
p135
sa(dp136
g68
S'C:\\Users\\Hiroshi\\Desktop\\web2py_src\\web2py\\gluon\\packages\\dal\\pydal\\base.py'
p137
sg70
(dp138
S'polymodel'
p139
S'None'
p140
ssg76
I873
sg77
(dp141
I868
S'            try:'
p142
sI869
S'                GLOBAL_LOCKER.acquire()'
p143
sI870
S'                self._lastsql = self._adapter.create_table('
p144
sI871
S'                    table,migrate=migrate,'
p145
sI872
S'                    fake_migrate=fake_migrate,'
p146
sI873
S'                    polymodel=polymodel)'
p147
sI874
S'            finally:'
p148
sI875
S'                GLOBAL_LOCKER.release()'
p149
sI876
S'        else:'
p150
sI877
S'            table._dbt = None'
p151
ssg89
S'(self=<DAL uri="sqlite://storage.sqlite">, tablename=\'auth_user\', *fields=(<pydal.objects.Field object>, <pydal.objects.Field object>, <pydal.objects.Field object>, <pydal.objects.Field object>, <pydal.objects.Field object>, <pydal.objects.Field object>, <pydal.objects.Field object>, <pydal.objects.Field object>, <pydal.objects.Field object>, <pydal.objects.Field object>, <pydal.objects.Field object>, <pydal.objects.Field object>, <pydal.objects.Field object>), **args={\'format\': \'%(first_name)s %(last_name)s\'})'
p152
sg91
S'lazy_define_table'
p153
sa(dp154
g68
S'C:\\Users\\Hiroshi\\Desktop\\web2py_src\\web2py\\gluon\\packages\\dal\\pydal\\adapters\\base.py'
p155
sg70
(dp156
S'fake_migrate'
p157
S'False'
p158
ssg76
I510
sg77
(dp159
I512
S'        return query'
p160
sI513
S''
sI514
S'    def migrate_table('
p161
sI505
S'            if sql_fields != sql_fields_old:'
p162
sI506
S'                self.migrate_table('
p163
sI507
S'                    table,'
p164
sI508
S'                    sql_fields, sql_fields_old,'
p165
sI509
S'                    sql_fields_aux, None,'
p166
sI510
S'                    fake_migrate=fake_migrate'
p167
sI511
S'                    )'
p168
ssg89
S'(self=<pydal.adapters.sqlite.SQLiteAdapter object>, table=<Table auth_user (id,first_name,last_name,email,...stration_key,reset_password_key,registration_id)>, migrate=True, fake_migrate=False, polymodel=None)'
p169
sg91
S'create_table'
p170
sa(dp171
g68
S'C:\\Users\\Hiroshi\\Desktop\\web2py_src\\web2py\\gluon\\packages\\dal\\pydal\\adapters\\base.py'
p172
sg70
(dp173
S'self.save_dbt'
p174
S'<bound method SQLiteAdapter.save_dbt of <pydal.adapters.sqlite.SQLiteAdapter object>>'
p175
sS'self'
p176
S'<pydal.adapters.sqlite.SQLiteAdapter object>'
p177
sS'sql_fields_current'
p178
S"{'company_category': {'length': 128, 'notnull': False, 'sortable': 6, 'sql': 'CHAR(128)', 'type': 'string', 'unique': False}, 'company_homepage': {'length': 128, 'notnull': False, 'sortable': 6, 'sql': 'CHAR(128)', 'type': 'string', 'unique': False}, 'company_name': {'length': 128, 'notnull': False, 'sortable': 5, 'sql': 'CHAR(128)', 'type': 'string', 'unique': False}, 'email': {'length': 128, 'notnull': False, 'sortable': 4, 'sql': 'CHAR(128) UNIQUE', 'type': 'string', 'unique': True}, 'first_name': {'length': 128, 'notnull': False, 'sortable': 2, 'sql': 'CHAR(128)', 'type': 'string', 'unique': False}, 'id': {'length': 512, 'notnull': False, 'sortable': 1, 'sql': 'INTEGER PRIMARY KEY AUTOINCREMENT', 'type': 'id', 'unique': False}, 'last_name': {'length': 128, 'notnull': False, 'sortable': 3, 'sql': 'CHAR(128)', 'type': 'string', 'unique': False}, 'office_address': {'length': 128, 'notnull': False, 'sortable': 7, 'sql': 'CHAR(128)', 'type': 'string', 'unique': False}, 'password': {'length': 512, 'notnull': False, 'sortable': 11, 'sql': 'CHAR(512)', 'type': 'password', 'unique': False}, 'phone_number': {'length': 512, 'notnull': False, 'sortable': 9, 'sql': 'CHAR(512)', 'type': 'string', 'unique': False}, ...}"
p179
sS'table'
p180
S'<Table auth_user (id,first_name,last_name,email,...stration_key,reset_password_key,registration_id)>'
p181
ssg76
I635
sg77
(dp182
I630
S'                            db.commit()'
p183
sI631
S'                            self.save_dbt(table,sql_fields_current)'
p184
sI632
S"                            self.log('success!\\n', table)"
p185
sI633
S''
sI634
S'            elif metadata_change:'
p186
sI635
S'                self.save_dbt(table,sql_fields_current)'
p187
sI636
S''
sI637
S'        if metadata_change and not (query and db._adapter.commit_on_alter_table):'
p188
sI638
S'            db.commit()'
p189
sI639
S'            self.save_dbt(table,sql_fields_current)'
p190
ssg89
S"(self=<pydal.adapters.sqlite.SQLiteAdapter object>, table=<Table auth_user (id,first_name,last_name,email,...stration_key,reset_password_key,registration_id)>, sql_fields={'company_homepage': {'length': 128, 'notnull': False, 'sortable': 6, 'sql': 'CHAR(128)', 'type': 'string', 'unique': False}, 'company_name': {'length': 128, 'notnull': False, 'sortable': 5, 'sql': 'CHAR(128)', 'type': 'string', 'unique': False}, 'email': {'length': 128, 'notnull': False, 'sortable': 4, 'sql': 'CHAR(128) UNIQUE', 'type': 'string', 'unique': True}, 'first_name': {'length': 128, 'notnull': False, 'sortable': 2, 'sql': 'CHAR(128)', 'type': 'string', 'unique': False}, 'id': {'length': 512, 'notnull': False, 'sortable': 1, 'sql': 'INTEGER PRIMARY KEY AUTOINCREMENT', 'type': 'id', 'unique': False}, 'last_name': {'length': 128, 'notnull': False, 'sortable': 3, 'sql': 'CHAR(128)', 'type': 'string', 'unique': False}, 'office_address': {'length': 128, 'notnull': False, 'sortable': 7, 'sql': 'CHAR(128)', 'type': 'string', 'unique': False}, 'password': {'length': 512, 'notnull': False, 'sortable': 11, 'sql': 'CHAR(512)', 'type': 'password', 'unique': False}, 'phone_number': {'length': 512, 'notnull': False, 'sortable': 9, 'sql': 'CHAR(512)', 'type': 'string', 'unique': False}, 'postcode': {'length': 128, 'notnull': False, 'sortable': 8, 'sql': 'CHAR(128)', 'type': 'string', 'unique': False}, ...}, sql_fields_old={'company_category': {'length': 128, 'notnull': False, 'sortable': 6, 'sql': 'CHAR(128)', 'type': 'string', 'unique': False}, 'company_homepage': {'length': 128, 'notnull': False, 'sortable': 6, 'sql': 'CHAR(128)', 'type': 'string', 'unique': False}, 'company_name': {'length': 128, 'notnull': False, 'sortable': 5, 'sql': 'CHAR(128)', 'type': 'string', 'unique': False}, 'email': {'length': 128, 'notnull': False, 'sortable': 4, 'sql': 'CHAR(128) UNIQUE', 'type': 'string', 'unique': True}, 'first_name': {'length': 128, 'notnull': False, 'sortable': 2, 'sql': 'CHAR(128)', 'type': 'string', 'unique': False}, 'id': {'length': 512, 'notnull': False, 'sortable': 1, 'sql': 'INTEGER PRIMARY KEY AUTOINCREMENT', 'type': 'id', 'unique': False}, 'last_name': {'length': 128, 'notnull': False, 'sortable': 3, 'sql': 'CHAR(128)', 'type': 'string', 'unique': False}, 'office_address': {'length': 128, 'notnull': False, 'sortable': 7, 'sql': 'CHAR(128)', 'type': 'string', 'unique': False}, 'password': {'length': 512, 'notnull': False, 'sortable': 11, 'sql': 'CHAR(512)', 'type': 'password', 'unique': False}, 'phone_number': {'length': 512, 'notnull': False, 'sortable': 9, 'sql': 'CHAR(512)', 'type': 'string', 'unique': False}, ...}, sql_fields_aux={'company_homepage': {'sql': 'CHAR(128)'}, 'company_name': {'sql': 'CHAR(128)'}, 'email': {'sql': 'CHAR(128) UNIQUE'}, 'first_name': {'sql': 'CHAR(128)'}, 'id': {'sql': 'INTEGER PRIMARY KEY AUTOINCREMENT'}, 'last_name': {'sql': 'CHAR(128)'}, 'office_address': {'sql': 'CHAR(128)'}, 'password': {'sql': 'CHAR(512)'}, 'phone_number': {'sql': 'CHAR(512)'}, 'postcode': {'sql': 'CHAR(128)'}, ...}, logfile=None, fake_migrate=False)"
p191
sg91
S'migrate_table'
p192
sa(dp193
g68
S'C:\\Users\\Hiroshi\\Desktop\\web2py_src\\web2py\\gluon\\packages\\dal\\pydal\\adapters\\base.py'
p194
sg70
(dp195
S'table'
p196
S'<Table auth_user (id,first_name,last_name,email,...stration_key,reset_password_key,registration_id)>'
p197
sS'self'
p198
S'<pydal.adapters.sqlite.SQLiteAdapter object>'
p199
sS'tfile'
p200
g121
sS'table._dbt'
p201
S"r'C:\\Users\\Hiroshi\\Desktop\\web2py_src\\web2py\\appli...\\c8b669d15150d7109e5f7ab36744a5b7_auth_user.table'"
p202
sS'self.file_open'
p203
S'<bound method SQLiteAdapter.file_open of <pydal.adapters.sqlite.SQLiteAdapter object>>'
p204
ssg76
I643
sg77
(dp205
I640
S"            self.log('success!\\n', table)"
p206
sI641
S''
sI642
S'    def save_dbt(self,table, sql_fields_current):'
p207
sI643
S"        tfile = self.file_open(table._dbt, 'wb')"
p208
sI644
S'        pickle.dump(sql_fields_current, tfile)'
p209
sI645
S'        self.file_close(tfile)'
p210
sI646
S''
sI647
S'    def LOWER(self, first):'
p211
sI638
S'            db.commit()'
p212
sI639
S'            self.save_dbt(table,sql_fields_current)'
p213
ssg89
S"(self=<pydal.adapters.sqlite.SQLiteAdapter object>, table=<Table auth_user (id,first_name,last_name,email,...stration_key,reset_password_key,registration_id)>, sql_fields_current={'company_category': {'length': 128, 'notnull': False, 'sortable': 6, 'sql': 'CHAR(128)', 'type': 'string', 'unique': False}, 'company_homepage': {'length': 128, 'notnull': False, 'sortable': 6, 'sql': 'CHAR(128)', 'type': 'string', 'unique': False}, 'company_name': {'length': 128, 'notnull': False, 'sortable': 5, 'sql': 'CHAR(128)', 'type': 'string', 'unique': False}, 'email': {'length': 128, 'notnull': False, 'sortable': 4, 'sql': 'CHAR(128) UNIQUE', 'type': 'string', 'unique': True}, 'first_name': {'length': 128, 'notnull': False, 'sortable': 2, 'sql': 'CHAR(128)', 'type': 'string', 'unique': False}, 'id': {'length': 512, 'notnull': False, 'sortable': 1, 'sql': 'INTEGER PRIMARY KEY AUTOINCREMENT', 'type': 'id', 'unique': False}, 'last_name': {'length': 128, 'notnull': False, 'sortable': 3, 'sql': 'CHAR(128)', 'type': 'string', 'unique': False}, 'office_address': {'length': 128, 'notnull': False, 'sortable': 7, 'sql': 'CHAR(128)', 'type': 'string', 'unique': False}, 'password': {'length': 512, 'notnull': False, 'sortable': 11, 'sql': 'CHAR(512)', 'type': 'password', 'unique': False}, 'phone_number': {'length': 512, 'notnull': False, 'sortable': 9, 'sql': 'CHAR(512)', 'type': 'string', 'unique': False}, ...})"
p214
sg91
S'save_dbt'
p215
sa(dp216
g68
S'C:\\Users\\Hiroshi\\Desktop\\web2py_src\\web2py\\gluon\\packages\\dal\\pydal\\adapters\\base.py'
p217
sg70
(dp218
S'mode'
p219
S"'wb'"
p220
sS'portalocker.LockedFile'
p221
S"<class 'pydal.contrib.portalocker.LockedFile'>"
p222
sS'global portalocker'
p223
S"<module 'pydal.contrib.portalocker' from 'C:\\Use...luon\\packages\\dal\\pydal\\contrib\\portalocker.pyc'>"
p224
sS'fileobj'
p225
g121
sS'filename'
p226
S"r'C:\\Users\\Hiroshi\\Desktop\\web2py_src\\web2py\\appli...\\c8b669d15150d7109e5f7ab36744a5b7_auth_user.table'"
p227
ssg76
I155
sg77
(dp228
I150
S'        return exists(filename)'
p229
sI151
S''
sI152
S"    def file_open(self, filename, mode='rb', lock=True):"
p230
sI153
S'        #to be used ONLY for files that on GAE may not be on filesystem'
p231
sI154
S'        if lock:'
p232
sI155
S'            fileobj = portalocker.LockedFile(filename,mode)'
p233
sI156
S'        else:'
p234
sI157
S'            fileobj = open(filename,mode)'
p235
sI158
S'        return fileobj'
p236
sI159
S''
ssg89
S"(self=<pydal.adapters.sqlite.SQLiteAdapter object>, filename=r'C:\\Users\\Hiroshi\\Desktop\\web2py_src\\web2py\\appli...\\c8b669d15150d7109e5f7ab36744a5b7_auth_user.table', mode='wb', lock=True)"
p237
sg91
S'file_open'
p238
sa(dp239
g68
S'C:\\Users\\Hiroshi\\Desktop\\web2py_src\\web2py\\gluon\\packages\\dal\\pydal\\contrib\\portalocker.py'
p240
sg70
(dp241
S'self.file.truncate'
p242
S'<built-in method truncate of file object>'
p243
sS'self'
p244
S'<pydal.contrib.portalocker.LockedFile object>'
p245
sS'self.file'
p246
S"<open file 'C:\\\\Users\\\\Hiroshi\\\\Desktop\\\\web2py_...d7109e5f7ab36744a5b7_auth_user.table', mode 'ab'>"
p247
ssg76
I122
sg77
(dp248
I117
S"        elif 'w' in mode or 'a' in mode:"
p249
sI118
S"            self.file = open(filename, mode.replace('w', 'a'))"
p250
sI119
S'            lock(self.file, LOCK_EX)'
p251
sI120
S"            if not 'a' in mode:"
p252
sI121
S'                self.file.seek(0)'
p253
sI122
S'                self.file.truncate(0)'
p254
sI123
S'        else:'
p255
sI124
S'            raise RuntimeError("invalid LockedFile(...,mode)")'
p256
sI125
S''
sI126
S'    def read(self, size=None):'
p257
ssg89
S"(self=<pydal.contrib.portalocker.LockedFile object>, filename=r'C:\\Users\\Hiroshi\\Desktop\\web2py_src\\web2py\\appli...\\c8b669d15150d7109e5f7ab36744a5b7_auth_user.table', mode='wb')"
p258
sg91
g22
sasS'pyver'
p259
S'Python 2.7.11: C:\\Python27\\python.exe (prefix: C:\\Python27)'
p260
sS'session'
p261
g63
(S's\xb4\x0c\x00\x00<div><table><tr><td style="font-weight:bold;vertical-align:top;">auth</td><td style="vertical-align:top;">:</td><td><div><table><tr><td style="font-weight:bold;vertical-align:top;">expiration</td><td style="vertical-align:top;">:</td><td><div>3600</div></td></tr><tr><td style="font-weight:bold;vertical-align:top;">hmac_key</td><td style="vertical-align:top;">:</td><td><div>ed63a8e6-5408-4744-bd3e-e939bbfd151e</div></td></tr><tr><td style="font-weight:bold;vertical-align:top;">last_visit</td><td style="vertical-align:top;">:</td><td><div>datetime.datetime(2016, 7, 29, 11, 31, 2, 296000)</div></td></tr><tr><td style="font-weight:bold;vertical-align:top;">remember_me</td><td style="vertical-align:top;">:</td><td><div>False</div></td></tr><tr><td style="font-weight:bold;vertical-align:top;">user</td><td style="vertical-align:top;">:</td><td><div><table><tr><td style="font-weight:bold;vertical-align:top;">company_homepage</td><td style="vertical-align:top;">:</td><td><div></div></td></tr><tr><td style="font-weight:bold;vertical-align:top;">company_name</td><td style="vertical-align:top;">:</td><td><div>2OR3 LTD</div></td></tr><tr><td style="font-weight:bold;vertical-align:top;">email</td><td style="vertical-align:top;">:</td><td><div>anachanpapa@gmail.com</div></td></tr><tr><td style="font-weight:bold;vertical-align:top;">first_name</td><td style="vertical-align:top;">:</td><td><div>Hiroshi</div></td></tr><tr><td style="font-weight:bold;vertical-align:top;">id</td><td style="vertical-align:top;">:</td><td><div>1L</div></td></tr><tr><td style="font-weight:bold;vertical-align:top;">last_name</td><td style="vertical-align:top;">:</td><td><div>Sasaki</div></td></tr><tr><td style="font-weight:bold;vertical-align:top;">office_address</td><td style="vertical-align:top;">:</td><td><div>2 Andover Close</div></td></tr><tr><td style="font-weight:bold;vertical-align:top;">phone_number</td><td style="vertical-align:top;">:</td><td><div>02085757185</div></td></tr><tr><td style="font-weight:bold;vertical-align:top;">postcode</td><td style="vertical-align:top;">:</td><td><div>UB6 9QW</div></td></tr><tr><td style="font-weight:bold;vertical-align:top;">registration_id</td><td style="vertical-align:top;">:</td><td><div></div></td></tr><tr><td style="font-weight:bold;vertical-align:top;">registration_key</td><td style="vertical-align:top;">:</td><td><div></div></td></tr><tr><td style="font-weight:bold;vertical-align:top;">reset_password_key</td><td style="vertical-align:top;">:</td><td><div></div></td></tr><tr><td style="font-weight:bold;vertical-align:top;">title</td><td style="vertical-align:top;">:</td><td><div>admin</div></td></tr></table></div></td></tr><tr><td style="font-weight:bold;vertical-align:top;">user_groups</td><td style="vertical-align:top;">:</td><td><div><table><tr><td style="font-weight:bold;vertical-align:top;">1</td><td style="vertical-align:top;">:</td><td><div>user_1</div></td></tr><tr><td style="font-weight:bold;vertical-align:top;">4</td><td style="vertical-align:top;">:</td><td><div>admin</div></td></tr></table></div></td></tr></table></div></td></tr><tr><td style="font-weight:bold;vertical-align:top;">flash</td><td style="vertical-align:top;">:</td><td><div>None</div></td></tr></table></div>'
tRp262
sS'etype'
p263
S"<type 'exceptions.IOError'>"
p264
sS'date'
p265
S'Fri Jul 29 11:36:15 2016'
p266
sS'response'
p267
g63
(S'sS\x18\x00\x00<div><table><tr><td style="font-weight:bold;vertical-align:top;">body</td><td style="vertical-align:top;">:</td><td><div>&lt;cStringIO.StringO object at 0x0A32E660&gt;</div></td></tr><tr><td style="font-weight:bold;vertical-align:top;">cookies</td><td style="vertical-align:top;">:</td><td><div><table><tr><td style="font-weight:bold;vertical-align:top;">session_id_thesakecellar</td><td style="vertical-align:top;">:</td><td><div>127.0.0.1-fc1b8443-5efa-492a-a2cc-021cc936d2d2<table><tr><td style="font-weight:bold;vertical-align:top;">comment</td><td style="vertical-align:top;">:</td><td><div></div></td></tr><tr><td style="font-weight:bold;vertical-align:top;">domain</td><td style="vertical-align:top;">:</td><td><div></div></td></tr><tr><td style="font-weight:bold;vertical-align:top;">expires</td><td style="vertical-align:top;">:</td><td><div></div></td></tr><tr><td style="font-weight:bold;vertical-align:top;">httponly</td><td style="vertical-align:top;">:</td><td><div></div></td></tr><tr><td style="font-weight:bold;vertical-align:top;">max-age</td><td style="vertical-align:top;">:</td><td><div></div></td></tr><tr><td style="font-weight:bold;vertical-align:top;">path</td><td style="vertical-align:top;">:</td><td><div>/</div></td></tr><tr><td style="font-weight:bold;vertical-align:top;">secure</td><td style="vertical-align:top;">:</td><td><div></div></td></tr><tr><td style="font-weight:bold;vertical-align:top;">version</td><td style="vertical-align:top;">:</td><td><div></div></td></tr></table></div></td></tr></table></div></td></tr><tr><td style="font-weight:bold;vertical-align:top;">delimiters</td><td style="vertical-align:top;">:</td><td><div><table><tr><td><div>{{</div></td></tr><tr><td><div>}}</div></td></tr></table></div></td></tr><tr><td style="font-weight:bold;vertical-align:top;">files</td><td style="vertical-align:top;">:</td><td><div><table></table></div></td></tr><tr><td style="font-weight:bold;vertical-align:top;">flash</td><td style="vertical-align:top;">:</td><td><div></div></td></tr><tr><td style="font-weight:bold;vertical-align:top;">form_label_separator</td><td style="vertical-align:top;">:</td><td><div>: </div></td></tr><tr><td style="font-weight:bold;vertical-align:top;">formstyle</td><td style="vertical-align:top;">:</td><td><div>table3cols</div></td></tr><tr><td style="font-weight:bold;vertical-align:top;">generic_patterns</td><td style="vertical-align:top;">:</td><td><div><table><tr><td><div>*</div></td></tr></table></div></td></tr><tr><td style="font-weight:bold;vertical-align:top;">headers</td><td style="vertical-align:top;">:</td><td><div><table><tr><td style="font-weight:bold;vertical-align:top;">X-Powered-By</td><td style="vertical-align:top;">:</td><td><div>web2py</div></td></tr></table></div></td></tr><tr><td style="font-weight:bold;vertical-align:top;">menu</td><td style="vertical-align:top;">:</td><td><div><table></table></div></td></tr><tr><td style="font-weight:bold;vertical-align:top;">meta</td><td style="vertical-align:top;">:</td><td><div><table></table></div></td></tr><tr><td style="font-weight:bold;vertical-align:top;">models_to_run</td><td style="vertical-align:top;">:</td><td><div><table><tr><td><div>^\\w+\\.py$</div></td></tr><tr><td><div>^default/\\w+\\.py$</div></td></tr><tr><td><div>^default/order_options/\\w+\\.py$</div></td></tr></table></div></td></tr><tr><td style="font-weight:bold;vertical-align:top;">postprocessing</td><td style="vertical-align:top;">:</td><td><div><table></table></div></td></tr><tr><td style="font-weight:bold;vertical-align:top;">session_client</td><td style="vertical-align:top;">:</td><td><div>127.0.0.1</div></td></tr><tr><td style="font-weight:bold;vertical-align:top;">session_cookie_compression_level</td><td style="vertical-align:top;">:</td><td><div>None</div></td></tr><tr><td style="font-weight:bold;vertical-align:top;">session_cookie_expires</td><td style="vertical-align:top;">:</td><td><div>None</div></td></tr><tr><td style="font-weight:bold;vertical-align:top;">session_cookie_key</td><td style="vertical-align:top;">:</td><td><div>None</div></td></tr><tr><td style="font-weight:bold;vertical-align:top;">session_data_name</td><td style="vertical-align:top;">:</td><td><div>session_data_thesakecellar</div></td></tr><tr><td style="font-weight:bold;vertical-align:top;">session_file</td><td style="vertical-align:top;">:</td><td><div>&lt;open file &#x27;C:\\\\Users\\\\Hiroshi\\\\Desktop\\\\web2py_src\\\\web2py\\\\applications\\\\thesakecellar\\\\sessions\\\\08e\\\\0e8\\\\127.0.0.1-fc1b8443-5efa-492a-a2cc-021cc936d2d2&#x27;, mode &#x27;rb+&#x27; at 0x0A085D88&gt;</div></td></tr><tr><td style="font-weight:bold;vertical-align:top;">session_filename</td><td style="vertical-align:top;">:</td><td><div>C:\\Users\\Hiroshi\\Desktop\\web2py_src\\web2py\\applications\\thesakecellar\\sessions\\127.0.0.1-fc1b8443-5efa-492a-a2cc-021cc936d2d2</div></td></tr><tr><td style="font-weight:bold;vertical-align:top;">session_hash</td><td style="vertical-align:top;">:</td><td><div>66668af285128c4df02d47273c4fb7a7</div></td></tr><tr><td style="font-weight:bold;vertical-align:top;">session_id</td><td style="vertical-align:top;">:</td><td><div>127.0.0.1-fc1b8443-5efa-492a-a2cc-021cc936d2d2</div></td></tr><tr><td style="font-weight:bold;vertical-align:top;">session_id_name</td><td style="vertical-align:top;">:</td><td><div>session_id_thesakecellar</div></td></tr><tr><td style="font-weight:bold;vertical-align:top;">session_locked</td><td style="vertical-align:top;">:</td><td><div>True</div></td></tr><tr><td style="font-weight:bold;vertical-align:top;">session_masterapp</td><td style="vertical-align:top;">:</td><td><div>thesakecellar</div></td></tr><tr><td style="font-weight:bold;vertical-align:top;">session_new</td><td style="vertical-align:top;">:</td><td><div>False</div></td></tr><tr><td style="font-weight:bold;vertical-align:top;">session_storage_type</td><td style="vertical-align:top;">:</td><td><div>file</div></td></tr><tr><td style="font-weight:bold;vertical-align:top;">status</td><td style="vertical-align:top;">:</td><td><div>200</div></td></tr><tr><td style="font-weight:bold;vertical-align:top;">view</td><td style="vertical-align:top;">:</td><td><div>default/order_options.html</div></td></tr></table></div>'
tRp268
sS'locals'
p269
(dp270
S'self'
p271
S'<pydal.contrib.portalocker.LockedFile object>'
p272
sS'mode'
p273
S"'wb'"
p274
sg36
S"r'C:\\Users\\Hiroshi\\Desktop\\web2py_src\\web2py\\appli...\\c8b669d15150d7109e5f7ab36744a5b7_auth_user.table'"
p275
sssS'traceback'
p276
S'Traceback (most recent call last):\n  File "C:\\Users\\Hiroshi\\Desktop\\web2py_src\\web2py\\gluon\\restricted.py", line 227, in restricted\n    exec ccode in environment\n  File "C:\\Users\\Hiroshi\\Desktop\\web2py_src\\web2py\\applications\\thesakecellar\\models\\db.py", line 46, in <module>\n    format=\'%(first_name)s %(last_name)s\')\n  File "C:\\Users\\Hiroshi\\Desktop\\web2py_src\\web2py\\gluon\\packages\\dal\\pydal\\base.py", line 834, in define_table\n    table = self.lazy_define_table(tablename,*fields,**args)\n  File "C:\\Users\\Hiroshi\\Desktop\\web2py_src\\web2py\\gluon\\packages\\dal\\pydal\\base.py", line 873, in lazy_define_table\n    polymodel=polymodel)\n  File "C:\\Users\\Hiroshi\\Desktop\\web2py_src\\web2py\\gluon\\packages\\dal\\pydal\\adapters\\base.py", line 510, in create_table\n    fake_migrate=fake_migrate\n  File "C:\\Users\\Hiroshi\\Desktop\\web2py_src\\web2py\\gluon\\packages\\dal\\pydal\\adapters\\base.py", line 635, in migrate_table\n    self.save_dbt(table,sql_fields_current)\n  File "C:\\Users\\Hiroshi\\Desktop\\web2py_src\\web2py\\gluon\\packages\\dal\\pydal\\adapters\\base.py", line 643, in save_dbt\n    tfile = self.file_open(table._dbt, \'wb\')\n  File "C:\\Users\\Hiroshi\\Desktop\\web2py_src\\web2py\\gluon\\packages\\dal\\pydal\\adapters\\base.py", line 155, in file_open\n    fileobj = portalocker.LockedFile(filename,mode)\n  File "C:\\Users\\Hiroshi\\Desktop\\web2py_src\\web2py\\gluon\\packages\\dal\\pydal\\contrib\\portalocker.py", line 122, in __init__\n    self.file.truncate(0)\nIOError: [Errno 13] Permission denied\n'
p277
s.