(dp1
S'output'
p2
S"<type 'exceptions.IOError'> [Errno 13] Permission denied"
p3
sS'layer'
p4
S'C:\\Users\\Hiroshi\\Desktop\\web2py_src\\web2py\\applications\\thesakecellar\\models\\db_custom.py'
p5
sS'code'
p6
S"db.define_table('product',\n\tField('name', 'string', notnull=True, unique=True),\n\tField('meisho', 'string'),\n\tField('abv', requires=IS_MATCH('[\\d\\.]+')),\n\tField('volume', requires=IS_MATCH('[\\d\\.]+')),\t\n\tField('brewery', 'string'),\n\tField('prefecture', 'string'),\n\tField('image', 'upload'),\n\tField('rice', 'string'),\n\tField('nihonshudo', requires=IS_MATCH('[\\d\\.\\-]+')),\n\tField('comment', 'text'),\n\tField('nihonshudo', requires=IS_MATCH('[\\d\\.\\-]+')),\n\tField('price', 'double'),\n\tField('stock', 'integer'),\n\tformat='%(name)s')\n\n\t\ndb.define_table('premise',\n    Field('first_name', length=128, default=''), \n    Field('last_name', length=128, default=''), \n\tField('purchased_by', 'reference auth_user'),\n\tField('premise_name', length=128, default=''),\t\n\tField('premise_address', length=128, default=''),\n\tField('premise_homepage', length=128, default=''),\n\tField('postcode', length=128),\n\tField('phone_number', requires=IS_MATCH('[\\d\\-\\(\\) ]+')),\n    format='%(first_name)s %(last_name)s')\n\n\t\ndb.premise.first_name.widget = lambda f,v: SQLFORM.widgets.string.widget(f, v, _placeholder='First Name')\ndb.premise.last_name.widget = lambda f,v: SQLFORM.widgets.string.widget(f, v, _placeholder='Last Name')\ndb.premise.premise_name.widget = lambda f,v: SQLFORM.widgets.string.widget(f, v, _placeholder='Restaurant/Shop Name')\ndb.premise.premise_homepage.widget = lambda f,v: SQLFORM.widgets.string.widget(f, v, _placeholder='Homepage(optional): e.g. http://yourcompany.com')\ndb.premise.premise_address.widget = lambda f,v: SQLFORM.widgets.string.widget(f, v, _placeholder='Restaurant/Shop  Address')\ndb.premise.postcode.widget = lambda f,v: SQLFORM.widgets.string.widget(f, v, _placeholder='Postcode')\ndb.premise.phone_number.widget = lambda f,v: SQLFORM.widgets.string.widget(f, v, _placeholder='Phone Number')\n\ndb.premise.first_name.requires = IS_NOT_EMPTY(error_message=auth.messages.is_empty) \ndb.premise.last_name.requires = IS_NOT_EMPTY(error_message=auth.messages.is_empty)\ndb.premise.premise_name.requires = IS_NOT_EMPTY(error_message=auth.messages.is_empty) \ndb.premise.premise_address.requires = IS_NOT_EMPTY(error_message=auth.messages.is_empty)\ndb.premise.postcode.requires = IS_NOT_EMPTY(error_message=auth.messages.is_empty) \ndb.premise.postcode.requires = [IS_MATCH('^[a-zA-Z0-9_\\- ]{5,8}$',error_message='wrong postcode')]\ndb.premise.phone_number.requires = IS_NOT_EMPTY(error_message=auth.messages.is_empty) \n\ndb.define_table('sales_order',\n\tField('order_number', requires=IS_MATCH('\\d{14}'), readable=False, writable=False), #e.g. 20160425131401\n\tField('ordered_by', 'reference auth_user', readable=False, writable=False),\n\tField('order_status', 'string', notnull=True, requires = IS_IN_SET(['in cart', 'order processing', 'invoiced', 'dispatched', 'paid', 'accounted'], zero=T('-- choose one --'), error_message='Status must be chosen')), #in cart, order processing, invoiced, dispatched, paid, accounted\n\tField('order_time', 'datetime', readable=False, writable=False),\n\tField('dispatch_time', 'datetime', readable=False, writable=False),\n\tField('delivery_premise', 'reference premise', readable=False, writable=False),\n\tField('payment_method', 'string', readable=False, writable=False),\t\n\tField('postage', 'double', readable=False, writable=False),\t\n\tField('subtotal', 'double', readable=False, writable=False),\n\tField('total', 'double', readable=False, writable=False))\n\ndb.define_table('sales_item',\n\tField('sales_order', 'reference sales_order'),\n\tField('product', 'reference product'),\n\tField('sales_price', 'double'),\n\tField('case_quantity', 'integer'))\n\n\t\ndb.define_table('customer_category',\n\tField('name', 'string'),\n\tField('off_rate', 'double'))\t\n\n\t\nme = auth.user_id"
p7
sS'snapshot'
p8
(dp9
S'exception'
p10
(dp11
S'__getslice__'
p12
S"<method-wrapper '__getslice__' of exceptions.IOError object>"
p13
sS'__str__'
p14
S"<method-wrapper '__str__' of exceptions.IOError object>"
p15
sS'__reduce__'
p16
S'<built-in method __reduce__ of exceptions.IOError object>'
p17
sS'__dict__'
p18
S'{}'
p19
sS'__sizeof__'
p20
S'<built-in method __sizeof__ of exceptions.IOError object>'
p21
sS'__init__'
p22
S"<method-wrapper '__init__' of exceptions.IOError object>"
p23
sS'__setattr__'
p24
S"<method-wrapper '__setattr__' of exceptions.IOError object>"
p25
sS'__reduce_ex__'
p26
S'<built-in method __reduce_ex__ of exceptions.IOError object>'
p27
sS'__new__'
p28
S'<built-in method __new__ of type object>'
p29
sS'errno'
p30
S'13'
p31
sS'__format__'
p32
S'<built-in method __format__ of exceptions.IOError object>'
p33
sS'__class__'
p34
S"<type 'exceptions.IOError'>"
p35
sS'filename'
p36
S'None'
p37
sS'__doc__'
p38
S"'I/O operation failed.'"
p39
sS'__getitem__'
p40
S"<method-wrapper '__getitem__' of exceptions.IOError object>"
p41
sS'__setstate__'
p42
S'<built-in method __setstate__ of exceptions.IOError object>'
p43
sS'__getattribute__'
p44
S"<method-wrapper '__getattribute__' of exceptions.IOError object>"
p45
sS'args'
p46
S"(13, 'Permission denied')"
p47
sS'__subclasshook__'
p48
S'<built-in method __subclasshook__ of type object>'
p49
sS'__unicode__'
p50
S'<built-in method __unicode__ of exceptions.IOError object>'
p51
sS'strerror'
p52
S"'Permission denied'"
p53
sS'__delattr__'
p54
S"<method-wrapper '__delattr__' of exceptions.IOError object>"
p55
sS'__repr__'
p56
S"<method-wrapper '__repr__' of exceptions.IOError object>"
p57
sS'__hash__'
p58
S"<method-wrapper '__hash__' of exceptions.IOError object>"
p59
ssS'evalue'
p60
S'[Errno 13] Permission denied'
p61
sS'request'
p62
cgluon.html
XML_unpickle
p63
(S's\x82Z\x00\x00<div><table><tr><td style="font-weight:bold;vertical-align:top;">ajax</td><td style="vertical-align:top;">:</td><td><div>False</div></td></tr><tr><td style="font-weight:bold;vertical-align:top;">application</td><td style="vertical-align:top;">:</td><td><div>thesakecellar</div></td></tr><tr><td style="font-weight:bold;vertical-align:top;">args</td><td style="vertical-align:top;">:</td><td><div><table><tr><td><div>change_password</div></td></tr></table></div></td></tr><tr><td style="font-weight:bold;vertical-align:top;">cid</td><td style="vertical-align:top;">:</td><td><div>None</div></td></tr><tr><td style="font-weight:bold;vertical-align:top;">client</td><td style="vertical-align:top;">:</td><td><div>127.0.0.1</div></td></tr><tr><td style="font-weight:bold;vertical-align:top;">controller</td><td style="vertical-align:top;">:</td><td><div>default</div></td></tr><tr><td style="font-weight:bold;vertical-align:top;">cookies</td><td style="vertical-align:top;">:</td><td><div><table><tr><td style="font-weight:bold;vertical-align:top;">session_id_admin</td><td style="vertical-align:top;">:</td><td><div>127.0.0.1-6e9c929e-9fce-4eb7-b3df-30123751373c<table><tr><td style="font-weight:bold;vertical-align:top;">comment</td><td style="vertical-align:top;">:</td><td><div></div></td></tr><tr><td style="font-weight:bold;vertical-align:top;">domain</td><td style="vertical-align:top;">:</td><td><div></div></td></tr><tr><td style="font-weight:bold;vertical-align:top;">expires</td><td style="vertical-align:top;">:</td><td><div></div></td></tr><tr><td style="font-weight:bold;vertical-align:top;">httponly</td><td style="vertical-align:top;">:</td><td><div></div></td></tr><tr><td style="font-weight:bold;vertical-align:top;">max-age</td><td style="vertical-align:top;">:</td><td><div></div></td></tr><tr><td style="font-weight:bold;vertical-align:top;">path</td><td style="vertical-align:top;">:</td><td><div></div></td></tr><tr><td style="font-weight:bold;vertical-align:top;">secure</td><td style="vertical-align:top;">:</td><td><div></div></td></tr><tr><td style="font-weight:bold;vertical-align:top;">version</td><td style="vertical-align:top;">:</td><td><div></div></td></tr></table></div></td></tr><tr><td style="font-weight:bold;vertical-align:top;">session_id_thesakecellar</td><td style="vertical-align:top;">:</td><td><div>127.0.0.1-00572239-9034-4ebc-9c51-60cd5f2e58a5<table><tr><td style="font-weight:bold;vertical-align:top;">comment</td><td style="vertical-align:top;">:</td><td><div></div></td></tr><tr><td style="font-weight:bold;vertical-align:top;">domain</td><td style="vertical-align:top;">:</td><td><div></div></td></tr><tr><td style="font-weight:bold;vertical-align:top;">expires</td><td style="vertical-align:top;">:</td><td><div></div></td></tr><tr><td style="font-weight:bold;vertical-align:top;">httponly</td><td style="vertical-align:top;">:</td><td><div></div></td></tr><tr><td style="font-weight:bold;vertical-align:top;">max-age</td><td style="vertical-align:top;">:</td><td><div></div></td></tr><tr><td style="font-weight:bold;vertical-align:top;">path</td><td style="vertical-align:top;">:</td><td><div></div></td></tr><tr><td style="font-weight:bold;vertical-align:top;">secure</td><td style="vertical-align:top;">:</td><td><div></div></td></tr><tr><td style="font-weight:bold;vertical-align:top;">version</td><td style="vertical-align:top;">:</td><td><div></div></td></tr></table></div></td></tr></table></div></td></tr><tr><td style="font-weight:bold;vertical-align:top;">env</td><td style="vertical-align:top;">:</td><td><div><table><tr><td style="font-weight:bold;vertical-align:top;">HTTP_ACCEPT</td><td style="vertical-align:top;">:</td><td><div>text/html,application/xhtml+xml,application/xml;q=0.9,image/webp,*/*;q=0.8</div></td></tr><tr><td style="font-weight:bold;vertical-align:top;">HTTP_ACCEPT_ENCODING</td><td style="vertical-align:top;">:</td><td><div>gzip, deflate, sdch</div></td></tr><tr><td style="font-weight:bold;vertical-align:top;">HTTP_ACCEPT_LANGUAGE</td><td style="vertical-align:top;">:</td><td><div>ja,en-US;q=0.8,en;q=0.6</div></td></tr><tr><td style="font-weight:bold;vertical-align:top;">HTTP_CONNECTION</td><td style="vertical-align:top;">:</td><td><div>keep-alive</div></td></tr><tr><td style="font-weight:bold;vertical-align:top;">HTTP_COOKIE</td><td style="vertical-align:top;">:</td><td><div>session_id_admin=127.0.0.1-6e9c929e-9fce-4eb7-b3df-30123751373c; session_id_thesakecellar=127.0.0.1-00572239-9034-4ebc-9c51-60cd5f2e58a5</div></td></tr><tr><td style="font-weight:bold;vertical-align:top;">HTTP_HOST</td><td style="vertical-align:top;">:</td><td><div>127.0.0.1:8000</div></td></tr><tr><td style="font-weight:bold;vertical-align:top;">HTTP_REFERER</td><td style="vertical-align:top;">:</td><td><div>http://127.0.0.1:8000/products</div></td></tr><tr><td style="font-weight:bold;vertical-align:top;">HTTP_UPGRADE_INSECURE_REQUESTS</td><td style="vertical-align:top;">:</td><td><div>1</div></td></tr><tr><td style="font-weight:bold;vertical-align:top;">HTTP_USER_AGENT</td><td style="vertical-align:top;">:</td><td><div>Mozilla/5.0 (Windows NT 10.0; WOW64) AppleWebKit/537.36 (KHTML, like Gecko) Chrome/51.0.2704.103 Safari/537.36</div></td></tr><tr><td style="font-weight:bold;vertical-align:top;">PATH_INFO</td><td style="vertical-align:top;">:</td><td><div>/user/change_password</div></td></tr><tr><td style="font-weight:bold;vertical-align:top;">QUERY_STRING</td><td style="vertical-align:top;">:</td><td><div>_next=/products</div></td></tr><tr><td style="font-weight:bold;vertical-align:top;">REMOTE_ADDR</td><td style="vertical-align:top;">:</td><td><div>127.0.0.1</div></td></tr><tr><td style="font-weight:bold;vertical-align:top;">REMOTE_PORT</td><td style="vertical-align:top;">:</td><td><div>54472</div></td></tr><tr><td style="font-weight:bold;vertical-align:top;">REQUEST_METHOD</td><td style="vertical-align:top;">:</td><td><div>GET</div></td></tr><tr><td style="font-weight:bold;vertical-align:top;">SCRIPT_NAME</td><td style="vertical-align:top;">:</td><td><div></div></td></tr><tr><td style="font-weight:bold;vertical-align:top;">SERVER_NAME</td><td style="vertical-align:top;">:</td><td><div>Grace</div></td></tr><tr><td style="font-weight:bold;vertical-align:top;">SERVER_PORT</td><td style="vertical-align:top;">:</td><td><div>8000</div></td></tr><tr><td style="font-weight:bold;vertical-align:top;">SERVER_PROTOCOL</td><td style="vertical-align:top;">:</td><td><div>HTTP/1.1</div></td></tr><tr><td style="font-weight:bold;vertical-align:top;">SERVER_SOFTWARE</td><td style="vertical-align:top;">:</td><td><div>Rocket 1.2.6</div></td></tr><tr><td style="font-weight:bold;vertical-align:top;">app_folders</td><td style="vertical-align:top;">:</td><td><div>set([&#x27;C:\\\\Users\\\\Hiroshi\\\\Desktop\\\\web2py_src\\\\web2py\\\\applications\\\\admin\\\\&#x27;, &#x27;C:\\\\Users\\\\Hiroshi\\\\Desktop\\\\web2py_src\\\\web2py\\\\applications\\\\thesakecellar\\\\&#x27;])</div></td></tr><tr><td style="font-weight:bold;vertical-align:top;">applications_parent</td><td style="vertical-align:top;">:</td><td><div>C:\\Users\\Hiroshi\\Desktop\\web2py_src\\web2py</div></td></tr><tr><td style="font-weight:bold;vertical-align:top;">cmd_args</td><td style="vertical-align:top;">:</td><td><div><table></table></div></td></tr><tr><td style="font-weight:bold;vertical-align:top;">cmd_options</td><td style="vertical-align:top;">:</td><td><div>&lt;Values at 0x3c96058: {&#x27;verbose&#x27;: False, &#x27;ip&#x27;: &#x27;127.0.0.1&#x27;, &#x27;debuglevel&#x27;: 30, &#x27;with_scheduler&#x27;: False, &#x27;ips&#x27;: [&#x27;fe80::5c04:b79d:529c:b311%4&#x27;, &#x27;192.168.2.1&#x27;, &#x27;192.168.229.1&#x27;, &#x27;192.168.1.72&#x27;, &#x27;fe80::28d2:dcdc:45a1:1f9c%2&#x27;, &#x27;fe80::2093:bc47:9545:e11c%6&#x27;], &#x27;shutdown_timeout&#x27;: 5, &#x27;taskbar&#x27;: False, &#x27;with_coverage&#x27;: False, &#x27;scheduler_groups&#x27;: None, &#x27;port&#x27;: 8000, &#x27;maxthreads&#x27;: None, &#x27;softcron&#x27;: False, &#x27;server_name&#x27;: &#x27;Grace&#x27;, &#x27;bpython&#x27;: False, &#x27;nogui&#x27;: False, &#x27;pid_filename&#x27;: &#x27;httpserver.pid&#x27;, &#x27;print_errors&#x27;: False, &#x27;extcron&#x27;: False, &#x27;runcron&#x27;: False, &#x27;run_system_tests&#x27;: False, &#x27;test&#x27;: None, &#x27;folder&#x27;: &#x27;C:\\\\Users\\\\Hiroshi\\\\Desktop\\\\web2py_src\\\\web2py&#x27;, &#x27;config&#x27;: &#x27;&#x27;, &#x27;minthreads&#x27;: None, &#x27;shell&#x27;: None, &#x27;run&#x27;: &#x27;&#x27;, &#x27;log_filename&#x27;: &#x27;httpserver.log&#x27;, &#x27;profiler_dir&#x27;: None, &#x27;args&#x27;: [&#x27;&#x27;], &#x27;socket_timeout&#x27;: 5, &#x27;ssl_ca_certificate&#x27;: None, &#x27;scheduler&#x27;: None, &#x27;interfaces&#x27;: None, &#x27;ssl_private_key&#x27;: &#x27;&#x27;, &#x27;gae&#x27;: None, &#x27;password&#x27;: &#x27;&lt;ask&gt;&#x27;, &#x27;request_queue_size&#x27;: 5, &#x27;ssl_certificate&#x27;: &#x27;&#x27;, &#x27;cronjob&#x27;: False, &#x27;numthreads&#x27;: None, &#x27;quiet&#x27;: False, &#x27;import_models&#x27;: False, &#x27;timeout&#x27;: 10, &#x27;plain&#x27;: False, &#x27;nobanner&#x27;: False}&gt;</div></td></tr><tr><td style="font-weight:bold;vertical-align:top;">db_sessions</td><td style="vertical-align:top;">:</td><td><div>set([])</div></td></tr><tr><td style="font-weight:bold;vertical-align:top;">debugging</td><td style="vertical-align:top;">:</td><td><div>False</div></td></tr><tr><td style="font-weight:bold;vertical-align:top;">gluon_parent</td><td style="vertical-align:top;">:</td><td><div>C:\\Users\\Hiroshi\\Desktop\\web2py_src\\web2py</div></td></tr><tr><td style="font-weight:bold;vertical-align:top;">http_accept</td><td style="vertical-align:top;">:</td><td><div>text/html,application/xhtml+xml,application/xml;q=0.9,image/webp,*/*;q=0.8</div></td></tr><tr><td style="font-weight:bold;vertical-align:top;">http_accept_encoding</td><td style="vertical-align:top;">:</td><td><div>gzip, deflate, sdch</div></td></tr><tr><td style="font-weight:bold;vertical-align:top;">http_accept_language</td><td style="vertical-align:top;">:</td><td><div>ja,en-US;q=0.8,en;q=0.6</div></td></tr><tr><td style="font-weight:bold;vertical-align:top;">http_connection</td><td style="vertical-align:top;">:</td><td><div>keep-alive</div></td></tr><tr><td style="font-weight:bold;vertical-align:top;">http_cookie</td><td style="vertical-align:top;">:</td><td><div>session_id_admin=127.0.0.1-6e9c929e-9fce-4eb7-b3df-30123751373c; session_id_thesakecellar=127.0.0.1-00572239-9034-4ebc-9c51-60cd5f2e58a5</div></td></tr><tr><td style="font-weight:bold;vertical-align:top;">http_host</td><td style="vertical-align:top;">:</td><td><div>127.0.0.1:8000</div></td></tr><tr><td style="font-weight:bold;vertical-align:top;">http_referer</td><td style="vertical-align:top;">:</td><td><div>http://127.0.0.1:8000/products</div></td></tr><tr><td style="font-weight:bold;vertical-align:top;">http_upgrade_insecure_requests</td><td style="vertical-align:top;">:</td><td><div>1</div></td></tr><tr><td style="font-weight:bold;vertical-align:top;">http_user_agent</td><td style="vertical-align:top;">:</td><td><div>Mozilla/5.0 (Windows NT 10.0; WOW64) AppleWebKit/537.36 (KHTML, like Gecko) Chrome/51.0.2704.103 Safari/537.36</div></td></tr><tr><td style="font-weight:bold;vertical-align:top;">is_jython</td><td style="vertical-align:top;">:</td><td><div>False</div></td></tr><tr><td style="font-weight:bold;vertical-align:top;">is_pypy</td><td style="vertical-align:top;">:</td><td><div>False</div></td></tr><tr><td style="font-weight:bold;vertical-align:top;">is_source</td><td style="vertical-align:top;">:</td><td><div>True</div></td></tr><tr><td style="font-weight:bold;vertical-align:top;">local_hosts</td><td style="vertical-align:top;">:</td><td><div><table><tr><td><div>fe80::5c04:b79d:529c:b311%4</div></td></tr><tr><td><div>192.168.2.1</div></td></tr><tr><td><div>192.168.229.1</div></td></tr><tr><td><div>::ffff:127.0.0.1</div></td></tr><tr><td><div>::1</div></td></tr><tr><td><div>192.168.1.72</div></td></tr><tr><td><div>fe80::28d2:dcdc:45a1:1f9c%2</div></td></tr><tr><td><div>fe80::2093:bc47:9545:e11c%6</div></td></tr><tr><td><div>Grace</div></td></tr><tr><td><div>127.0.0.1</div></td></tr></table></div></td></tr><tr><td style="font-weight:bold;vertical-align:top;">path_info</td><td style="vertical-align:top;">:</td><td><div>/user/change_password</div></td></tr><tr><td style="font-weight:bold;vertical-align:top;">query_string</td><td style="vertical-align:top;">:</td><td><div>_next=/products</div></td></tr><tr><td style="font-weight:bold;vertical-align:top;">remote_addr</td><td style="vertical-align:top;">:</td><td><div>127.0.0.1</div></td></tr><tr><td style="font-weight:bold;vertical-align:top;">remote_port</td><td style="vertical-align:top;">:</td><td><div>54472</div></td></tr><tr><td style="font-weight:bold;vertical-align:top;">request_method</td><td style="vertical-align:top;">:</td><td><div>GET</div></td></tr><tr><td style="font-weight:bold;vertical-align:top;">request_uri</td><td style="vertical-align:top;">:</td><td><div>/thesakecellar/default/user/change_password?_next=/products</div></td></tr><tr><td style="font-weight:bold;vertical-align:top;">script_name</td><td style="vertical-align:top;">:</td><td><div></div></td></tr><tr><td style="font-weight:bold;vertical-align:top;">server_name</td><td style="vertical-align:top;">:</td><td><div>Grace</div></td></tr><tr><td style="font-weight:bold;vertical-align:top;">server_port</td><td style="vertical-align:top;">:</td><td><div>8000</div></td></tr><tr><td style="font-weight:bold;vertical-align:top;">server_protocol</td><td style="vertical-align:top;">:</td><td><div>HTTP/1.1</div></td></tr><tr><td style="font-weight:bold;vertical-align:top;">server_software</td><td style="vertical-align:top;">:</td><td><div>Rocket 1.2.6</div></td></tr><tr><td style="font-weight:bold;vertical-align:top;">web2py_original_uri</td><td style="vertical-align:top;">:</td><td><div>/user/change_password?_next=/products</div></td></tr><tr><td style="font-weight:bold;vertical-align:top;">web2py_path</td><td style="vertical-align:top;">:</td><td><div>C:\\Users\\Hiroshi\\Desktop\\web2py_src\\web2py</div></td></tr><tr><td style="font-weight:bold;vertical-align:top;">web2py_version</td><td style="vertical-align:top;">:</td><td><div>2.13.4-stable+timestamp.2015.12.26.04.59.39</div></td></tr><tr><td style="font-weight:bold;vertical-align:top;">wsgi.errors</td><td style="vertical-align:top;">:</td><td><div>&lt;open file &#x27;&lt;stderr&gt;&#x27;, mode &#x27;w&#x27; at 0x02DBD0D0&gt;</div></td></tr><tr><td style="font-weight:bold;vertical-align:top;">wsgi.file_wrapper</td><td style="vertical-align:top;">:</td><td><div>&lt;class wsgiref.util.FileWrapper at 0x03C06068&gt;</div></td></tr><tr><td style="font-weight:bold;vertical-align:top;">wsgi.input</td><td style="vertical-align:top;">:</td><td><div>&lt;socket._fileobject object at 0x09AC03B0&gt;</div></td></tr><tr><td style="font-weight:bold;vertical-align:top;">wsgi.multiprocess</td><td style="vertical-align:top;">:</td><td><div>False</div></td></tr><tr><td style="font-weight:bold;vertical-align:top;">wsgi.multithread</td><td style="vertical-align:top;">:</td><td><div>True</div></td></tr><tr><td style="font-weight:bold;vertical-align:top;">wsgi.run_once</td><td style="vertical-align:top;">:</td><td><div>False</div></td></tr><tr><td style="font-weight:bold;vertical-align:top;">wsgi.url_scheme</td><td style="vertical-align:top;">:</td><td><div>http</div></td></tr><tr><td style="font-weight:bold;vertical-align:top;">wsgi.version</td><td style="vertical-align:top;">:</td><td><div><table><tr><td><div>1</div></td></tr><tr><td><div>0</div></td></tr></table></div></td></tr><tr><td style="font-weight:bold;vertical-align:top;">wsgi_errors</td><td style="vertical-align:top;">:</td><td><div>&lt;open file &#x27;&lt;stderr&gt;&#x27;, mode &#x27;w&#x27; at 0x02DBD0D0&gt;</div></td></tr><tr><td style="font-weight:bold;vertical-align:top;">wsgi_file_wrapper</td><td style="vertical-align:top;">:</td><td><div>&lt;class wsgiref.util.FileWrapper at 0x03C06068&gt;</div></td></tr><tr><td style="font-weight:bold;vertical-align:top;">wsgi_input</td><td style="vertical-align:top;">:</td><td><div>&lt;socket._fileobject object at 0x09AC03B0&gt;</div></td></tr><tr><td style="font-weight:bold;vertical-align:top;">wsgi_multiprocess</td><td style="vertical-align:top;">:</td><td><div>False</div></td></tr><tr><td style="font-weight:bold;vertical-align:top;">wsgi_multithread</td><td style="vertical-align:top;">:</td><td><div>True</div></td></tr><tr><td style="font-weight:bold;vertical-align:top;">wsgi_run_once</td><td style="vertical-align:top;">:</td><td><div>False</div></td></tr><tr><td style="font-weight:bold;vertical-align:top;">wsgi_url_scheme</td><td style="vertical-align:top;">:</td><td><div>http</div></td></tr><tr><td style="font-weight:bold;vertical-align:top;">wsgi_version</td><td style="vertical-align:top;">:</td><td><div><table><tr><td><div>1</div></td></tr><tr><td><div>0</div></td></tr></table></div></td></tr></table></div></td></tr><tr><td style="font-weight:bold;vertical-align:top;">extension</td><td style="vertical-align:top;">:</td><td><div>html</div></td></tr><tr><td style="font-weight:bold;vertical-align:top;">folder</td><td style="vertical-align:top;">:</td><td><div>C:\\Users\\Hiroshi\\Desktop\\web2py_src\\web2py\\applications\\thesakecellar\\</div></td></tr><tr><td style="font-weight:bold;vertical-align:top;">function</td><td style="vertical-align:top;">:</td><td><div>user</div></td></tr><tr><td style="font-weight:bold;vertical-align:top;">global_settings</td><td style="vertical-align:top;">:</td><td><div><table><tr><td style="font-weight:bold;vertical-align:top;">app_folders</td><td style="vertical-align:top;">:</td><td><div>set([&#x27;C:\\\\Users\\\\Hiroshi\\\\Desktop\\\\web2py_src\\\\web2py\\\\applications\\\\admin\\\\&#x27;, &#x27;C:\\\\Users\\\\Hiroshi\\\\Desktop\\\\web2py_src\\\\web2py\\\\applications\\\\thesakecellar\\\\&#x27;])</div></td></tr><tr><td style="font-weight:bold;vertical-align:top;">applications_parent</td><td style="vertical-align:top;">:</td><td><div>C:\\Users\\Hiroshi\\Desktop\\web2py_src\\web2py</div></td></tr><tr><td style="font-weight:bold;vertical-align:top;">cmd_args</td><td style="vertical-align:top;">:</td><td><div><table></table></div></td></tr><tr><td style="font-weight:bold;vertical-align:top;">cmd_options</td><td style="vertical-align:top;">:</td><td><div>&lt;Values at 0x3c96058: {&#x27;verbose&#x27;: False, &#x27;ip&#x27;: &#x27;127.0.0.1&#x27;, &#x27;debuglevel&#x27;: 30, &#x27;with_scheduler&#x27;: False, &#x27;ips&#x27;: [&#x27;fe80::5c04:b79d:529c:b311%4&#x27;, &#x27;192.168.2.1&#x27;, &#x27;192.168.229.1&#x27;, &#x27;192.168.1.72&#x27;, &#x27;fe80::28d2:dcdc:45a1:1f9c%2&#x27;, &#x27;fe80::2093:bc47:9545:e11c%6&#x27;], &#x27;shutdown_timeout&#x27;: 5, &#x27;taskbar&#x27;: False, &#x27;with_coverage&#x27;: False, &#x27;scheduler_groups&#x27;: None, &#x27;port&#x27;: 8000, &#x27;maxthreads&#x27;: None, &#x27;softcron&#x27;: False, &#x27;server_name&#x27;: &#x27;Grace&#x27;, &#x27;bpython&#x27;: False, &#x27;nogui&#x27;: False, &#x27;pid_filename&#x27;: &#x27;httpserver.pid&#x27;, &#x27;print_errors&#x27;: False, &#x27;extcron&#x27;: False, &#x27;runcron&#x27;: False, &#x27;run_system_tests&#x27;: False, &#x27;test&#x27;: None, &#x27;folder&#x27;: &#x27;C:\\\\Users\\\\Hiroshi\\\\Desktop\\\\web2py_src\\\\web2py&#x27;, &#x27;config&#x27;: &#x27;&#x27;, &#x27;minthreads&#x27;: None, &#x27;shell&#x27;: None, &#x27;run&#x27;: &#x27;&#x27;, &#x27;log_filename&#x27;: &#x27;httpserver.log&#x27;, &#x27;profiler_dir&#x27;: None, &#x27;args&#x27;: [&#x27;&#x27;], &#x27;socket_timeout&#x27;: 5, &#x27;ssl_ca_certificate&#x27;: None, &#x27;scheduler&#x27;: None, &#x27;interfaces&#x27;: None, &#x27;ssl_private_key&#x27;: &#x27;&#x27;, &#x27;gae&#x27;: None, &#x27;password&#x27;: &#x27;&lt;ask&gt;&#x27;, &#x27;request_queue_size&#x27;: 5, &#x27;ssl_certificate&#x27;: &#x27;&#x27;, &#x27;cronjob&#x27;: False, &#x27;numthreads&#x27;: None, &#x27;quiet&#x27;: False, &#x27;import_models&#x27;: False, &#x27;timeout&#x27;: 10, &#x27;plain&#x27;: False, &#x27;nobanner&#x27;: False}&gt;</div></td></tr><tr><td style="font-weight:bold;vertical-align:top;">db_sessions</td><td style="vertical-align:top;">:</td><td><div>set([])</div></td></tr><tr><td style="font-weight:bold;vertical-align:top;">debugging</td><td style="vertical-align:top;">:</td><td><div>False</div></td></tr><tr><td style="font-weight:bold;vertical-align:top;">gluon_parent</td><td style="vertical-align:top;">:</td><td><div>C:\\Users\\Hiroshi\\Desktop\\web2py_src\\web2py</div></td></tr><tr><td style="font-weight:bold;vertical-align:top;">is_jython</td><td style="vertical-align:top;">:</td><td><div>False</div></td></tr><tr><td style="font-weight:bold;vertical-align:top;">is_pypy</td><td style="vertical-align:top;">:</td><td><div>False</div></td></tr><tr><td style="font-weight:bold;vertical-align:top;">is_source</td><td style="vertical-align:top;">:</td><td><div>True</div></td></tr><tr><td style="font-weight:bold;vertical-align:top;">local_hosts</td><td style="vertical-align:top;">:</td><td><div><table><tr><td><div>fe80::5c04:b79d:529c:b311%4</div></td></tr><tr><td><div>192.168.2.1</div></td></tr><tr><td><div>192.168.229.1</div></td></tr><tr><td><div>::ffff:127.0.0.1</div></td></tr><tr><td><div>::1</div></td></tr><tr><td><div>192.168.1.72</div></td></tr><tr><td><div>fe80::28d2:dcdc:45a1:1f9c%2</div></td></tr><tr><td><div>fe80::2093:bc47:9545:e11c%6</div></td></tr><tr><td><div>Grace</div></td></tr><tr><td><div>127.0.0.1</div></td></tr></table></div></td></tr><tr><td style="font-weight:bold;vertical-align:top;">web2py_version</td><td style="vertical-align:top;">:</td><td><div>2.13.4-stable+timestamp.2015.12.26.04.59.39</div></td></tr></table></div></td></tr><tr><td style="font-weight:bold;vertical-align:top;">is_https</td><td style="vertical-align:top;">:</td><td><div>False</div></td></tr><tr><td style="font-weight:bold;vertical-align:top;">is_local</td><td style="vertical-align:top;">:</td><td><div>True</div></td></tr><tr><td style="font-weight:bold;vertical-align:top;">is_restful</td><td style="vertical-align:top;">:</td><td><div>False</div></td></tr><tr><td style="font-weight:bold;vertical-align:top;">is_scheduler</td><td style="vertical-align:top;">:</td><td><div>False</div></td></tr><tr><td style="font-weight:bold;vertical-align:top;">is_shell</td><td style="vertical-align:top;">:</td><td><div>False</div></td></tr><tr><td style="font-weight:bold;vertical-align:top;">now</td><td style="vertical-align:top;">:</td><td><div>datetime.datetime(2016, 8, 5, 20, 21, 5, 711000)</div></td></tr><tr><td style="font-weight:bold;vertical-align:top;">url</td><td style="vertical-align:top;">:</td><td><div>/user/change_password</div></td></tr><tr><td style="font-weight:bold;vertical-align:top;">utcnow</td><td style="vertical-align:top;">:</td><td><div>datetime.datetime(2016, 8, 5, 19, 21, 5, 711000)</div></td></tr><tr><td style="font-weight:bold;vertical-align:top;">wsgi</td><td style="vertical-align:top;">:</td><td><div>&lt;gluon.main.LazyWSGI object at 0x09AB30B0&gt;</div></td></tr></table></div>'
tRp64
sS'frames'
p65
(lp66
(dp67
S'file'
p68
S'C:\\Users\\Hiroshi\\Desktop\\web2py_src\\web2py\\gluon\\restricted.py'
p69
sS'dump'
p70
(dp71
S'environment'
p72
S"{'A': <class 'gluon.html.A'>, 'ANY_OF': <class 'gluon.validators.ANY_OF'>, 'ASSIGNJS': <function ASSIGNJS>, 'Auth': <class 'gluon.tools.Auth'>, 'B': <class 'gluon.html.B'>, 'BEAUTIFY': <class 'gluon.html.BEAUTIFY'>, 'BODY': <class 'gluon.html.BODY'>, 'BR': <class 'gluon.html.BR'>, 'BUTTON': <class 'gluon.html.BUTTON'>, 'CAT': <class 'gluon.html.CAT'>, ...}"
p73
sS'ccode'
p74
S'<code object <module> at 09AA6698, file "C:\\User...tions\\thesakecellar\\models\\db_custom.py", line 1>'
p75
ssS'lnum'
p76
I227
sS'lines'
p77
(dp78
I224
S'            ccode = code'
p79
sI225
S'        else:'
p80
sI226
S'            ccode = compile2(code, layer)'
p81
sI227
S'        exec ccode in environment'
p82
sI228
S'    except HTTP:'
p83
sI229
S'        raise'
p84
sI230
S'    except RestrictedError:'
p85
sI231
S'        # do not encapsulate (obfuscate) the original RestrictedError'
p86
sI222
S'    try:'
p87
sI223
S'        if isinstance(code, types.CodeType):'
p88
ssS'call'
p89
S'(code="db.define_table(\'product\',\\n\\tField(\'name\', \'strin...ield(\'off_rate\', \'double\'))\\t\\n\\n\\t\\nme = auth.user_id", environment={\'A\': <class \'gluon.html.A\'>, \'ANY_OF\': <class \'gluon.validators.ANY_OF\'>, \'ASSIGNJS\': <function ASSIGNJS>, \'Auth\': <class \'gluon.tools.Auth\'>, \'B\': <class \'gluon.html.B\'>, \'BEAUTIFY\': <class \'gluon.html.BEAUTIFY\'>, \'BODY\': <class \'gluon.html.BODY\'>, \'BR\': <class \'gluon.html.BR\'>, \'BUTTON\': <class \'gluon.html.BUTTON\'>, \'CAT\': <class \'gluon.html.CAT\'>, ...}, layer=r\'C:\\Users\\Hiroshi\\Desktop\\web2py_src\\web2py\\applications\\thesakecellar\\models\\db_custom.py\')'
p90
sS'func'
p91
S'restricted'
p92
sa(dp93
g68
S'C:\\Users\\Hiroshi\\Desktop\\web2py_src\\web2py\\applications\\thesakecellar\\models\\db_custom.py'
p94
sg70
(dp95
S'writable'
p96
S'undefined'
p97
sS'Field'
p98
S"<class 'pydal.objects.Field'>"
p99
sS'readable'
p100
g97
sS'builtinFalse'
p101
S'False'
p102
ssg76
I56
sg77
(dp103
I51
S"\tField('dispatch_time', 'datetime', readable=False, writable=False),"
p104
sI52
S"\tField('delivery_premise', 'reference premise', readable=False, writable=False),"
p105
sI53
S"\tField('payment_method', 'string', readable=False, writable=False),"
p106
sI54
S"\tField('postage', 'double', readable=False, writable=False),"
p107
sI55
S"\tField('subtotal', 'double', readable=False, writable=False),"
p108
sI56
S"\tField('total', 'double', readable=False, writable=False))"
p109
sI57
S''
sI58
S"db.define_table('sales_item',"
p110
sI59
S"\tField('sales_order', 'reference sales_order'),"
p111
sI60
S"\tField('product', 'reference product'),"
p112
ssg89
S'()'
p113
sg91
S'<module>'
p114
sa(dp115
g68
S'C:\\Users\\Hiroshi\\Desktop\\web2py_src\\web2py\\gluon\\packages\\dal\\pydal\\base.py'
p116
sg70
(dp117
S'fields'
p118
S'(<pydal.objects.Field object>, <pydal.objects.Field object>, <pydal.objects.Field object>, <pydal.objects.Field object>, <pydal.objects.Field object>, <pydal.objects.Field object>, <pydal.objects.Field object>, <pydal.objects.Field object>, <pydal.objects.Field object>, <pydal.objects.Field object>)'
p119
sS'self'
p120
S'<DAL uri="sqlite://storage.sqlite">'
p121
sS'args'
p122
g19
sS'tablename'
p123
S"'sales_order'"
p124
sS'table'
p125
g97
sS'self.lazy_define_table'
p126
S'<bound method DAL.lazy_define_table of <DAL uri="sqlite://storage.sqlite">>'
p127
ssg76
I834
sg77
(dp128
I832
S'            table = None'
p129
sI833
S'        else:'
p130
sI834
S'            table = self.lazy_define_table(tablename,*fields,**args)'
p131
sI835
S'        if not tablename in self.tables:'
p132
sI836
S'            self.tables.append(tablename)'
p133
sI837
S'        return table'
p134
sI838
S''
sI829
S'                    % (tablename,invalid_args))'
p135
sI830
S'        if self._lazy_tables and tablename not in self._LAZY_TABLES:'
p136
sI831
S'            self._LAZY_TABLES[tablename] = (tablename,fields,args)'
p137
ssg89
S'(self=<DAL uri="sqlite://storage.sqlite">, tablename=\'sales_order\', *fields=(<pydal.objects.Field object>, <pydal.objects.Field object>, <pydal.objects.Field object>, <pydal.objects.Field object>, <pydal.objects.Field object>, <pydal.objects.Field object>, <pydal.objects.Field object>, <pydal.objects.Field object>, <pydal.objects.Field object>, <pydal.objects.Field object>), **args={})'
p138
sg91
S'define_table'
p139
sa(dp140
g68
S'C:\\Users\\Hiroshi\\Desktop\\web2py_src\\web2py\\gluon\\packages\\dal\\pydal\\base.py'
p141
sg70
(dp142
S'polymodel'
p143
S'None'
p144
ssg76
I873
sg77
(dp145
I868
S'            try:'
p146
sI869
S'                GLOBAL_LOCKER.acquire()'
p147
sI870
S'                self._lastsql = self._adapter.create_table('
p148
sI871
S'                    table,migrate=migrate,'
p149
sI872
S'                    fake_migrate=fake_migrate,'
p150
sI873
S'                    polymodel=polymodel)'
p151
sI874
S'            finally:'
p152
sI875
S'                GLOBAL_LOCKER.release()'
p153
sI876
S'        else:'
p154
sI877
S'            table._dbt = None'
p155
ssg89
S'(self=<DAL uri="sqlite://storage.sqlite">, tablename=\'sales_order\', *fields=(<pydal.objects.Field object>, <pydal.objects.Field object>, <pydal.objects.Field object>, <pydal.objects.Field object>, <pydal.objects.Field object>, <pydal.objects.Field object>, <pydal.objects.Field object>, <pydal.objects.Field object>, <pydal.objects.Field object>, <pydal.objects.Field object>), **args={})'
p156
sg91
S'lazy_define_table'
p157
sa(dp158
g68
S'C:\\Users\\Hiroshi\\Desktop\\web2py_src\\web2py\\gluon\\packages\\dal\\pydal\\adapters\\base.py'
p159
sg70
(dp160
S'fake_migrate'
p161
g102
ssg76
I510
sg77
(dp162
I512
S'        return query'
p163
sI513
S''
sI514
S'    def migrate_table('
p164
sI505
S'            if sql_fields != sql_fields_old:'
p165
sI506
S'                self.migrate_table('
p166
sI507
S'                    table,'
p167
sI508
S'                    sql_fields, sql_fields_old,'
p168
sI509
S'                    sql_fields_aux, None,'
p169
sI510
S'                    fake_migrate=fake_migrate'
p170
sI511
S'                    )'
p171
ssg89
S'(self=<pydal.adapters.sqlite.SQLiteAdapter object>, table=<Table sales_order (id,order_number,ordered_by,o...y_premise,payment_method,postage,subtotal,total)>, migrate=True, fake_migrate=False, polymodel=None)'
p172
sg91
S'create_table'
p173
sa(dp174
g68
S'C:\\Users\\Hiroshi\\Desktop\\web2py_src\\web2py\\gluon\\packages\\dal\\pydal\\adapters\\base.py'
p175
sg70
(dp176
S'self.save_dbt'
p177
S'<bound method SQLiteAdapter.save_dbt of <pydal.adapters.sqlite.SQLiteAdapter object>>'
p178
sS'self'
p179
S'<pydal.adapters.sqlite.SQLiteAdapter object>'
p180
sS'sql_fields_current'
p181
S"{'delivery_address': {'length': 512, 'notnull': False, 'sortable': 7, 'sql': 'INTEGER REFERENCES sales_order (id) ON DELETE CASCADE  ', 'type': 'reference sales_order', 'unique': False}, 'delivery_premise': {'length': 512, 'notnull': False, 'sortable': 7, 'sql': 'INTEGER REFERENCES premise (id) ON DELETE CASCADE  ', 'type': 'reference premise', 'unique': False}, 'dispatch_time': {'length': 512, 'notnull': False, 'sortable': 6, 'sql': 'TIMESTAMP', 'type': 'datetime', 'unique': False}, 'id': {'length': 512, 'notnull': False, 'sortable': 1, 'sql': 'INTEGER PRIMARY KEY AUTOINCREMENT', 'type': 'id', 'unique': False}, 'order_number': {'length': 512, 'notnull': False, 'sortable': 2, 'sql': 'CHAR(512)', 'type': 'string', 'unique': False}, 'order_status': {'length': 512, 'notnull': True, 'sortable': 4, 'sql': 'CHAR(512) NOT NULL', 'type': 'string', 'unique': False}, 'order_time': {'length': 512, 'notnull': False, 'sortable': 5, 'sql': 'TIMESTAMP', 'type': 'datetime', 'unique': False}, 'ordered_by': {'length': 512, 'notnull': False, 'sortable': 3, 'sql': 'INTEGER REFERENCES auth_user (id) ON DELETE CASCADE  ', 'type': 'reference auth_user', 'unique': False}, 'payment': {'length': 512, 'notnull': False, 'sortable': 8, 'sql': 'CHAR(512)', 'type': 'string', 'unique': False}, 'payment_method': {'length': 512, 'notnull': False, 'sortable': 8, 'sql': 'CHAR(512)', 'type': 'string', 'unique': False}, ...}"
p182
sS'table'
p183
S'<Table sales_order (id,order_number,ordered_by,o...y_premise,payment_method,postage,subtotal,total)>'
p184
ssg76
I635
sg77
(dp185
I630
S'                            db.commit()'
p186
sI631
S'                            self.save_dbt(table,sql_fields_current)'
p187
sI632
S"                            self.log('success!\\n', table)"
p188
sI633
S''
sI634
S'            elif metadata_change:'
p189
sI635
S'                self.save_dbt(table,sql_fields_current)'
p190
sI636
S''
sI637
S'        if metadata_change and not (query and db._adapter.commit_on_alter_table):'
p191
sI638
S'            db.commit()'
p192
sI639
S'            self.save_dbt(table,sql_fields_current)'
p193
ssg89
S"(self=<pydal.adapters.sqlite.SQLiteAdapter object>, table=<Table sales_order (id,order_number,ordered_by,o...y_premise,payment_method,postage,subtotal,total)>, sql_fields={'delivery_premise': {'length': 512, 'notnull': False, 'sortable': 7, 'sql': 'INTEGER REFERENCES premise (id) ON DELETE CASCADE  ', 'type': 'reference premise', 'unique': False}, 'dispatch_time': {'length': 512, 'notnull': False, 'sortable': 6, 'sql': 'TIMESTAMP', 'type': 'datetime', 'unique': False}, 'id': {'length': 512, 'notnull': False, 'sortable': 1, 'sql': 'INTEGER PRIMARY KEY AUTOINCREMENT', 'type': 'id', 'unique': False}, 'order_number': {'length': 512, 'notnull': False, 'sortable': 2, 'sql': 'CHAR(512)', 'type': 'string', 'unique': False}, 'order_status': {'length': 512, 'notnull': True, 'sortable': 4, 'sql': 'CHAR(512) NOT NULL', 'type': 'string', 'unique': False}, 'order_time': {'length': 512, 'notnull': False, 'sortable': 5, 'sql': 'TIMESTAMP', 'type': 'datetime', 'unique': False}, 'ordered_by': {'length': 512, 'notnull': False, 'sortable': 3, 'sql': 'INTEGER REFERENCES auth_user (id) ON DELETE CASCADE  ', 'type': 'reference auth_user', 'unique': False}, 'payment_method': {'length': 512, 'notnull': False, 'sortable': 8, 'sql': 'CHAR(512)', 'type': 'string', 'unique': False}, 'postage': {'length': 512, 'notnull': False, 'sortable': 9, 'sql': 'DOUBLE', 'type': 'double', 'unique': False}, 'subtotal': {'length': 512, 'notnull': False, 'sortable': 10, 'sql': 'DOUBLE', 'type': 'double', 'unique': False}, ...}, sql_fields_old={'delivery_address': {'length': 512, 'notnull': False, 'sortable': 7, 'sql': 'INTEGER REFERENCES sales_order (id) ON DELETE CASCADE  ', 'type': 'reference sales_order', 'unique': False}, 'delivery_premise': {'length': 512, 'notnull': False, 'sortable': 7, 'sql': 'INTEGER REFERENCES premise (id) ON DELETE CASCADE  ', 'type': 'reference premise', 'unique': False}, 'dispatch_time': {'length': 512, 'notnull': False, 'sortable': 6, 'sql': 'TIMESTAMP', 'type': 'datetime', 'unique': False}, 'id': {'length': 512, 'notnull': False, 'sortable': 1, 'sql': 'INTEGER PRIMARY KEY AUTOINCREMENT', 'type': 'id', 'unique': False}, 'order_number': {'length': 512, 'notnull': False, 'sortable': 2, 'sql': 'CHAR(512)', 'type': 'string', 'unique': False}, 'order_status': {'length': 512, 'notnull': True, 'sortable': 4, 'sql': 'CHAR(512) NOT NULL', 'type': 'string', 'unique': False}, 'order_time': {'length': 512, 'notnull': False, 'sortable': 5, 'sql': 'TIMESTAMP', 'type': 'datetime', 'unique': False}, 'ordered_by': {'length': 512, 'notnull': False, 'sortable': 3, 'sql': 'INTEGER REFERENCES auth_user (id) ON DELETE CASCADE  ', 'type': 'reference auth_user', 'unique': False}, 'payment': {'length': 512, 'notnull': False, 'sortable': 8, 'sql': 'CHAR(512)', 'type': 'string', 'unique': False}, 'payment_method': {'length': 512, 'notnull': False, 'sortable': 8, 'sql': 'CHAR(512)', 'type': 'string', 'unique': False}, ...}, sql_fields_aux={'delivery_premise': {'sql': 'INTEGER REFERENCES premise (id) ON DELETE CASCADE  '}, 'dispatch_time': {'sql': 'TIMESTAMP'}, 'id': {'sql': 'INTEGER PRIMARY KEY AUTOINCREMENT'}, 'order_number': {'sql': 'CHAR(512)'}, 'order_status': {'sql': 'CHAR(512) NOT NULL'}, 'order_time': {'sql': 'TIMESTAMP'}, 'ordered_by': {'sql': 'INTEGER REFERENCES auth_user (id) ON DELETE CASCADE  '}, 'payment_method': {'sql': 'CHAR(512)'}, 'postage': {'sql': 'DOUBLE'}, 'subtotal': {'sql': 'DOUBLE'}, ...}, logfile=None, fake_migrate=False)"
p194
sg91
S'migrate_table'
p195
sa(dp196
g68
S'C:\\Users\\Hiroshi\\Desktop\\web2py_src\\web2py\\gluon\\packages\\dal\\pydal\\adapters\\base.py'
p197
sg70
(dp198
S'table'
p199
S'<Table sales_order (id,order_number,ordered_by,o...y_premise,payment_method,postage,subtotal,total)>'
p200
sS'self'
p201
S'<pydal.adapters.sqlite.SQLiteAdapter object>'
p202
sS'tfile'
p203
g97
sS'table._dbt'
p204
S"r'C:\\Users\\Hiroshi\\Desktop\\web2py_src\\web2py\\appli...8b669d15150d7109e5f7ab36744a5b7_sales_order.table'"
p205
sS'self.file_open'
p206
S'<bound method SQLiteAdapter.file_open of <pydal.adapters.sqlite.SQLiteAdapter object>>'
p207
ssg76
I643
sg77
(dp208
I640
S"            self.log('success!\\n', table)"
p209
sI641
S''
sI642
S'    def save_dbt(self,table, sql_fields_current):'
p210
sI643
S"        tfile = self.file_open(table._dbt, 'wb')"
p211
sI644
S'        pickle.dump(sql_fields_current, tfile)'
p212
sI645
S'        self.file_close(tfile)'
p213
sI646
S''
sI647
S'    def LOWER(self, first):'
p214
sI638
S'            db.commit()'
p215
sI639
S'            self.save_dbt(table,sql_fields_current)'
p216
ssg89
S"(self=<pydal.adapters.sqlite.SQLiteAdapter object>, table=<Table sales_order (id,order_number,ordered_by,o...y_premise,payment_method,postage,subtotal,total)>, sql_fields_current={'delivery_address': {'length': 512, 'notnull': False, 'sortable': 7, 'sql': 'INTEGER REFERENCES sales_order (id) ON DELETE CASCADE  ', 'type': 'reference sales_order', 'unique': False}, 'delivery_premise': {'length': 512, 'notnull': False, 'sortable': 7, 'sql': 'INTEGER REFERENCES premise (id) ON DELETE CASCADE  ', 'type': 'reference premise', 'unique': False}, 'dispatch_time': {'length': 512, 'notnull': False, 'sortable': 6, 'sql': 'TIMESTAMP', 'type': 'datetime', 'unique': False}, 'id': {'length': 512, 'notnull': False, 'sortable': 1, 'sql': 'INTEGER PRIMARY KEY AUTOINCREMENT', 'type': 'id', 'unique': False}, 'order_number': {'length': 512, 'notnull': False, 'sortable': 2, 'sql': 'CHAR(512)', 'type': 'string', 'unique': False}, 'order_status': {'length': 512, 'notnull': True, 'sortable': 4, 'sql': 'CHAR(512) NOT NULL', 'type': 'string', 'unique': False}, 'order_time': {'length': 512, 'notnull': False, 'sortable': 5, 'sql': 'TIMESTAMP', 'type': 'datetime', 'unique': False}, 'ordered_by': {'length': 512, 'notnull': False, 'sortable': 3, 'sql': 'INTEGER REFERENCES auth_user (id) ON DELETE CASCADE  ', 'type': 'reference auth_user', 'unique': False}, 'payment': {'length': 512, 'notnull': False, 'sortable': 8, 'sql': 'CHAR(512)', 'type': 'string', 'unique': False}, 'payment_method': {'length': 512, 'notnull': False, 'sortable': 8, 'sql': 'CHAR(512)', 'type': 'string', 'unique': False}, ...})"
p217
sg91
S'save_dbt'
p218
sa(dp219
g68
S'C:\\Users\\Hiroshi\\Desktop\\web2py_src\\web2py\\gluon\\packages\\dal\\pydal\\adapters\\base.py'
p220
sg70
(dp221
S'mode'
p222
S"'wb'"
p223
sS'portalocker.LockedFile'
p224
S"<class 'pydal.contrib.portalocker.LockedFile'>"
p225
sS'global portalocker'
p226
S"<module 'pydal.contrib.portalocker' from 'C:\\Use...luon\\packages\\dal\\pydal\\contrib\\portalocker.pyc'>"
p227
sS'fileobj'
p228
g97
sS'filename'
p229
S"r'C:\\Users\\Hiroshi\\Desktop\\web2py_src\\web2py\\appli...8b669d15150d7109e5f7ab36744a5b7_sales_order.table'"
p230
ssg76
I155
sg77
(dp231
I150
S'        return exists(filename)'
p232
sI151
S''
sI152
S"    def file_open(self, filename, mode='rb', lock=True):"
p233
sI153
S'        #to be used ONLY for files that on GAE may not be on filesystem'
p234
sI154
S'        if lock:'
p235
sI155
S'            fileobj = portalocker.LockedFile(filename,mode)'
p236
sI156
S'        else:'
p237
sI157
S'            fileobj = open(filename,mode)'
p238
sI158
S'        return fileobj'
p239
sI159
S''
ssg89
S"(self=<pydal.adapters.sqlite.SQLiteAdapter object>, filename=r'C:\\Users\\Hiroshi\\Desktop\\web2py_src\\web2py\\appli...8b669d15150d7109e5f7ab36744a5b7_sales_order.table', mode='wb', lock=True)"
p240
sg91
S'file_open'
p241
sa(dp242
g68
S'C:\\Users\\Hiroshi\\Desktop\\web2py_src\\web2py\\gluon\\packages\\dal\\pydal\\contrib\\portalocker.py'
p243
sg70
(dp244
S'self.file.truncate'
p245
S'<built-in method truncate of file object>'
p246
sS'self'
p247
S'<pydal.contrib.portalocker.LockedFile object>'
p248
sS'self.file'
p249
S"<open file 'C:\\\\Users\\\\Hiroshi\\\\Desktop\\\\web2py_...109e5f7ab36744a5b7_sales_order.table', mode 'ab'>"
p250
ssg76
I122
sg77
(dp251
I117
S"        elif 'w' in mode or 'a' in mode:"
p252
sI118
S"            self.file = open(filename, mode.replace('w', 'a'))"
p253
sI119
S'            lock(self.file, LOCK_EX)'
p254
sI120
S"            if not 'a' in mode:"
p255
sI121
S'                self.file.seek(0)'
p256
sI122
S'                self.file.truncate(0)'
p257
sI123
S'        else:'
p258
sI124
S'            raise RuntimeError("invalid LockedFile(...,mode)")'
p259
sI125
S''
sI126
S'    def read(self, size=None):'
p260
ssg89
S"(self=<pydal.contrib.portalocker.LockedFile object>, filename=r'C:\\Users\\Hiroshi\\Desktop\\web2py_src\\web2py\\appli...8b669d15150d7109e5f7ab36744a5b7_sales_order.table', mode='wb')"
p261
sg91
g22
sasS'pyver'
p262
S'Python 2.7.11: C:\\Python27\\python.exe (prefix: C:\\Python27)'
p263
sS'session'
p264
g63
(S's\xb4\x0c\x00\x00<div><table><tr><td style="font-weight:bold;vertical-align:top;">auth</td><td style="vertical-align:top;">:</td><td><div><table><tr><td style="font-weight:bold;vertical-align:top;">expiration</td><td style="vertical-align:top;">:</td><td><div>3600</div></td></tr><tr><td style="font-weight:bold;vertical-align:top;">hmac_key</td><td style="vertical-align:top;">:</td><td><div>682ef85d-a47b-4873-afe2-9f386f36c91c</div></td></tr><tr><td style="font-weight:bold;vertical-align:top;">last_visit</td><td style="vertical-align:top;">:</td><td><div>datetime.datetime(2016, 8, 5, 20, 20, 58, 558000)</div></td></tr><tr><td style="font-weight:bold;vertical-align:top;">remember_me</td><td style="vertical-align:top;">:</td><td><div>False</div></td></tr><tr><td style="font-weight:bold;vertical-align:top;">user</td><td style="vertical-align:top;">:</td><td><div><table><tr><td style="font-weight:bold;vertical-align:top;">company_homepage</td><td style="vertical-align:top;">:</td><td><div></div></td></tr><tr><td style="font-weight:bold;vertical-align:top;">company_name</td><td style="vertical-align:top;">:</td><td><div>2OR3 LTD</div></td></tr><tr><td style="font-weight:bold;vertical-align:top;">email</td><td style="vertical-align:top;">:</td><td><div>anachanpapa@gmail.com</div></td></tr><tr><td style="font-weight:bold;vertical-align:top;">first_name</td><td style="vertical-align:top;">:</td><td><div>Hiroshi</div></td></tr><tr><td style="font-weight:bold;vertical-align:top;">id</td><td style="vertical-align:top;">:</td><td><div>1L</div></td></tr><tr><td style="font-weight:bold;vertical-align:top;">last_name</td><td style="vertical-align:top;">:</td><td><div>Sasaki</div></td></tr><tr><td style="font-weight:bold;vertical-align:top;">office_address</td><td style="vertical-align:top;">:</td><td><div>2 Andover Close</div></td></tr><tr><td style="font-weight:bold;vertical-align:top;">phone_number</td><td style="vertical-align:top;">:</td><td><div>02085757185</div></td></tr><tr><td style="font-weight:bold;vertical-align:top;">postcode</td><td style="vertical-align:top;">:</td><td><div>UB6 9QW</div></td></tr><tr><td style="font-weight:bold;vertical-align:top;">registration_id</td><td style="vertical-align:top;">:</td><td><div></div></td></tr><tr><td style="font-weight:bold;vertical-align:top;">registration_key</td><td style="vertical-align:top;">:</td><td><div></div></td></tr><tr><td style="font-weight:bold;vertical-align:top;">reset_password_key</td><td style="vertical-align:top;">:</td><td><div></div></td></tr><tr><td style="font-weight:bold;vertical-align:top;">title</td><td style="vertical-align:top;">:</td><td><div>admin</div></td></tr></table></div></td></tr><tr><td style="font-weight:bold;vertical-align:top;">user_groups</td><td style="vertical-align:top;">:</td><td><div><table><tr><td style="font-weight:bold;vertical-align:top;">1</td><td style="vertical-align:top;">:</td><td><div>user_1</div></td></tr><tr><td style="font-weight:bold;vertical-align:top;">4</td><td style="vertical-align:top;">:</td><td><div>admin</div></td></tr></table></div></td></tr></table></div></td></tr><tr><td style="font-weight:bold;vertical-align:top;">flash</td><td style="vertical-align:top;">:</td><td><div>None</div></td></tr></table></div>'
tRp265
sS'etype'
p266
S"<type 'exceptions.IOError'>"
p267
sS'date'
p268
S'Fri Aug 05 20:21:05 2016'
p269
sS'response'
p270
g63
(S'sA\x18\x00\x00<div><table><tr><td style="font-weight:bold;vertical-align:top;">body</td><td style="vertical-align:top;">:</td><td><div>&lt;cStringIO.StringO object at 0x09AB01C0&gt;</div></td></tr><tr><td style="font-weight:bold;vertical-align:top;">cookies</td><td style="vertical-align:top;">:</td><td><div><table><tr><td style="font-weight:bold;vertical-align:top;">session_id_thesakecellar</td><td style="vertical-align:top;">:</td><td><div>127.0.0.1-00572239-9034-4ebc-9c51-60cd5f2e58a5<table><tr><td style="font-weight:bold;vertical-align:top;">comment</td><td style="vertical-align:top;">:</td><td><div></div></td></tr><tr><td style="font-weight:bold;vertical-align:top;">domain</td><td style="vertical-align:top;">:</td><td><div></div></td></tr><tr><td style="font-weight:bold;vertical-align:top;">expires</td><td style="vertical-align:top;">:</td><td><div></div></td></tr><tr><td style="font-weight:bold;vertical-align:top;">httponly</td><td style="vertical-align:top;">:</td><td><div></div></td></tr><tr><td style="font-weight:bold;vertical-align:top;">max-age</td><td style="vertical-align:top;">:</td><td><div></div></td></tr><tr><td style="font-weight:bold;vertical-align:top;">path</td><td style="vertical-align:top;">:</td><td><div>/</div></td></tr><tr><td style="font-weight:bold;vertical-align:top;">secure</td><td style="vertical-align:top;">:</td><td><div></div></td></tr><tr><td style="font-weight:bold;vertical-align:top;">version</td><td style="vertical-align:top;">:</td><td><div></div></td></tr></table></div></td></tr></table></div></td></tr><tr><td style="font-weight:bold;vertical-align:top;">delimiters</td><td style="vertical-align:top;">:</td><td><div><table><tr><td><div>{{</div></td></tr><tr><td><div>}}</div></td></tr></table></div></td></tr><tr><td style="font-weight:bold;vertical-align:top;">files</td><td style="vertical-align:top;">:</td><td><div><table></table></div></td></tr><tr><td style="font-weight:bold;vertical-align:top;">flash</td><td style="vertical-align:top;">:</td><td><div></div></td></tr><tr><td style="font-weight:bold;vertical-align:top;">form_label_separator</td><td style="vertical-align:top;">:</td><td><div>: </div></td></tr><tr><td style="font-weight:bold;vertical-align:top;">formstyle</td><td style="vertical-align:top;">:</td><td><div>table3cols</div></td></tr><tr><td style="font-weight:bold;vertical-align:top;">generic_patterns</td><td style="vertical-align:top;">:</td><td><div><table><tr><td><div>*</div></td></tr></table></div></td></tr><tr><td style="font-weight:bold;vertical-align:top;">headers</td><td style="vertical-align:top;">:</td><td><div><table><tr><td style="font-weight:bold;vertical-align:top;">X-Powered-By</td><td style="vertical-align:top;">:</td><td><div>web2py</div></td></tr></table></div></td></tr><tr><td style="font-weight:bold;vertical-align:top;">menu</td><td style="vertical-align:top;">:</td><td><div><table></table></div></td></tr><tr><td style="font-weight:bold;vertical-align:top;">meta</td><td style="vertical-align:top;">:</td><td><div><table></table></div></td></tr><tr><td style="font-weight:bold;vertical-align:top;">models_to_run</td><td style="vertical-align:top;">:</td><td><div><table><tr><td><div>^\\w+\\.py$</div></td></tr><tr><td><div>^default/\\w+\\.py$</div></td></tr><tr><td><div>^default/user/\\w+\\.py$</div></td></tr></table></div></td></tr><tr><td style="font-weight:bold;vertical-align:top;">postprocessing</td><td style="vertical-align:top;">:</td><td><div><table></table></div></td></tr><tr><td style="font-weight:bold;vertical-align:top;">session_client</td><td style="vertical-align:top;">:</td><td><div>127.0.0.1</div></td></tr><tr><td style="font-weight:bold;vertical-align:top;">session_cookie_compression_level</td><td style="vertical-align:top;">:</td><td><div>None</div></td></tr><tr><td style="font-weight:bold;vertical-align:top;">session_cookie_expires</td><td style="vertical-align:top;">:</td><td><div>None</div></td></tr><tr><td style="font-weight:bold;vertical-align:top;">session_cookie_key</td><td style="vertical-align:top;">:</td><td><div>None</div></td></tr><tr><td style="font-weight:bold;vertical-align:top;">session_data_name</td><td style="vertical-align:top;">:</td><td><div>session_data_thesakecellar</div></td></tr><tr><td style="font-weight:bold;vertical-align:top;">session_file</td><td style="vertical-align:top;">:</td><td><div>&lt;open file &#x27;C:\\\\Users\\\\Hiroshi\\\\Desktop\\\\web2py_src\\\\web2py\\\\applications\\\\thesakecellar\\\\sessions\\\\0fd\\\\1b2\\\\127.0.0.1-00572239-9034-4ebc-9c51-60cd5f2e58a5&#x27;, mode &#x27;rb+&#x27; at 0x0A08E910&gt;</div></td></tr><tr><td style="font-weight:bold;vertical-align:top;">session_filename</td><td style="vertical-align:top;">:</td><td><div>C:\\Users\\Hiroshi\\Desktop\\web2py_src\\web2py\\applications\\thesakecellar\\sessions\\127.0.0.1-00572239-9034-4ebc-9c51-60cd5f2e58a5</div></td></tr><tr><td style="font-weight:bold;vertical-align:top;">session_hash</td><td style="vertical-align:top;">:</td><td><div>54447703b93519230dbf1fb880ec2dda</div></td></tr><tr><td style="font-weight:bold;vertical-align:top;">session_id</td><td style="vertical-align:top;">:</td><td><div>127.0.0.1-00572239-9034-4ebc-9c51-60cd5f2e58a5</div></td></tr><tr><td style="font-weight:bold;vertical-align:top;">session_id_name</td><td style="vertical-align:top;">:</td><td><div>session_id_thesakecellar</div></td></tr><tr><td style="font-weight:bold;vertical-align:top;">session_locked</td><td style="vertical-align:top;">:</td><td><div>True</div></td></tr><tr><td style="font-weight:bold;vertical-align:top;">session_masterapp</td><td style="vertical-align:top;">:</td><td><div>thesakecellar</div></td></tr><tr><td style="font-weight:bold;vertical-align:top;">session_new</td><td style="vertical-align:top;">:</td><td><div>False</div></td></tr><tr><td style="font-weight:bold;vertical-align:top;">session_storage_type</td><td style="vertical-align:top;">:</td><td><div>file</div></td></tr><tr><td style="font-weight:bold;vertical-align:top;">status</td><td style="vertical-align:top;">:</td><td><div>200</div></td></tr><tr><td style="font-weight:bold;vertical-align:top;">view</td><td style="vertical-align:top;">:</td><td><div>default/user.html</div></td></tr></table></div>'
tRp271
sS'locals'
p272
(dp273
S'self'
p274
S'<pydal.contrib.portalocker.LockedFile object>'
p275
sS'mode'
p276
S"'wb'"
p277
sg36
S"r'C:\\Users\\Hiroshi\\Desktop\\web2py_src\\web2py\\appli...8b669d15150d7109e5f7ab36744a5b7_sales_order.table'"
p278
sssS'traceback'
p279
S'Traceback (most recent call last):\n  File "C:\\Users\\Hiroshi\\Desktop\\web2py_src\\web2py\\gluon\\restricted.py", line 227, in restricted\n    exec ccode in environment\n  File "C:\\Users\\Hiroshi\\Desktop\\web2py_src\\web2py\\applications\\thesakecellar\\models\\db_custom.py", line 56, in <module>\n    Field(\'total\', \'double\', readable=False, writable=False))\n  File "C:\\Users\\Hiroshi\\Desktop\\web2py_src\\web2py\\gluon\\packages\\dal\\pydal\\base.py", line 834, in define_table\n    table = self.lazy_define_table(tablename,*fields,**args)\n  File "C:\\Users\\Hiroshi\\Desktop\\web2py_src\\web2py\\gluon\\packages\\dal\\pydal\\base.py", line 873, in lazy_define_table\n    polymodel=polymodel)\n  File "C:\\Users\\Hiroshi\\Desktop\\web2py_src\\web2py\\gluon\\packages\\dal\\pydal\\adapters\\base.py", line 510, in create_table\n    fake_migrate=fake_migrate\n  File "C:\\Users\\Hiroshi\\Desktop\\web2py_src\\web2py\\gluon\\packages\\dal\\pydal\\adapters\\base.py", line 635, in migrate_table\n    self.save_dbt(table,sql_fields_current)\n  File "C:\\Users\\Hiroshi\\Desktop\\web2py_src\\web2py\\gluon\\packages\\dal\\pydal\\adapters\\base.py", line 643, in save_dbt\n    tfile = self.file_open(table._dbt, \'wb\')\n  File "C:\\Users\\Hiroshi\\Desktop\\web2py_src\\web2py\\gluon\\packages\\dal\\pydal\\adapters\\base.py", line 155, in file_open\n    fileobj = portalocker.LockedFile(filename,mode)\n  File "C:\\Users\\Hiroshi\\Desktop\\web2py_src\\web2py\\gluon\\packages\\dal\\pydal\\contrib\\portalocker.py", line 122, in __init__\n    self.file.truncate(0)\nIOError: [Errno 13] Permission denied\n'
p280
s.